SF:/home/matthew/develop/personal/karva/crates/karva_core/src/collection/collector.rs
FN:87,_RNCNvMNtNtCs4RrqI5pJN37_10karva_core10collection9collectorNtB4_17TestCaseCollector14collect_module0B8_
FN:47,_RNCNvMNtNtCs4RrqI5pJN37_10karva_core10collection9collectorNtB4_17TestCaseCollector21collect_test_function0B8_
FN:63,_RNvMNtNtCs4RrqI5pJN37_10karva_core10collection9collectorNtB2_17TestCaseCollector14collect_module
FN:106,_RNvMNtNtCs4RrqI5pJN37_10karva_core10collection9collectorNtB2_17TestCaseCollector15collect_package
FN:40,_RNvMNtNtCs4RrqI5pJN37_10karva_core10collection9collectorNtB2_17TestCaseCollector21collect_test_function
FN:13,_RNvMNtNtCs4RrqI5pJN37_10karva_core10collection9collectorNtB2_17TestCaseCollector7collect
FN:87,_RNCNvMNtNtCs1eKvc9ZrgUW_10karva_core10collection9collectorNtB4_17TestCaseCollector14collect_module0B8_
FN:47,_RNCNvMNtNtCs1eKvc9ZrgUW_10karva_core10collection9collectorNtB4_17TestCaseCollector21collect_test_function0B8_
FN:63,_RNvMNtNtCs1eKvc9ZrgUW_10karva_core10collection9collectorNtB2_17TestCaseCollector14collect_module
FN:106,_RNvMNtNtCs1eKvc9ZrgUW_10karva_core10collection9collectorNtB2_17TestCaseCollector15collect_package
FN:40,_RNvMNtNtCs1eKvc9ZrgUW_10karva_core10collection9collectorNtB2_17TestCaseCollector21collect_test_function
FN:13,_RNvMNtNtCs1eKvc9ZrgUW_10karva_core10collection9collectorNtB2_17TestCaseCollector7collect
FNDA:206,_RNCNvMNtNtCs4RrqI5pJN37_10karva_core10collection9collectorNtB4_17TestCaseCollector14collect_module0B8_
FNDA:230,_RNCNvMNtNtCs4RrqI5pJN37_10karva_core10collection9collectorNtB4_17TestCaseCollector21collect_test_function0B8_
FNDA:173,_RNvMNtNtCs4RrqI5pJN37_10karva_core10collection9collectorNtB2_17TestCaseCollector14collect_module
FNDA:315,_RNvMNtNtCs4RrqI5pJN37_10karva_core10collection9collectorNtB2_17TestCaseCollector15collect_package
FNDA:206,_RNvMNtNtCs4RrqI5pJN37_10karva_core10collection9collectorNtB2_17TestCaseCollector21collect_test_function
FNDA:155,_RNvMNtNtCs4RrqI5pJN37_10karva_core10collection9collectorNtB2_17TestCaseCollector7collect
FNDA:2,_RNCNvMNtNtCs1eKvc9ZrgUW_10karva_core10collection9collectorNtB4_17TestCaseCollector14collect_module0B8_
FNDA:2,_RNCNvMNtNtCs1eKvc9ZrgUW_10karva_core10collection9collectorNtB4_17TestCaseCollector21collect_test_function0B8_
FNDA:2,_RNvMNtNtCs1eKvc9ZrgUW_10karva_core10collection9collectorNtB2_17TestCaseCollector14collect_module
FNDA:4,_RNvMNtNtCs1eKvc9ZrgUW_10karva_core10collection9collectorNtB2_17TestCaseCollector15collect_package
FNDA:2,_RNvMNtNtCs1eKvc9ZrgUW_10karva_core10collection9collectorNtB2_17TestCaseCollector21collect_test_function
FNDA:2,_RNvMNtNtCs1eKvc9ZrgUW_10karva_core10collection9collectorNtB2_17TestCaseCollector7collect
FNF:6
FNH:6
DA:13,157
DA:14,157
DA:15,157
DA:16,157
DA:17,157
DA:19,157
DA:21,157
DA:23,157
DA:24,157
DA:25,157
DA:26,157
DA:27,157
DA:28,157
DA:31,157
DA:33,157
DA:35,157
DA:37,157
DA:38,157
DA:40,208
DA:41,208
DA:42,208
DA:43,208
DA:44,208
DA:45,208
DA:46,208
DA:47,232
DA:48,232
DA:50,232
DA:51,232
DA:52,232
DA:53,232
DA:54,232
DA:55,232
DA:56,232
DA:58,232
DA:60,208
DA:61,208
DA:63,175
DA:64,175
DA:65,175
DA:66,175
DA:67,175
DA:68,175
DA:69,175
DA:70,175
DA:71,17
DA:72,158
DA:74,158
DA:76,158
DA:77,158
DA:78,158
DA:79,158
DA:80,158
DA:81,158
DA:82,158
DA:85,158
DA:87,208
DA:88,208
DA:89,208
DA:90,208
DA:91,208
DA:92,208
DA:93,208
DA:95,208
DA:97,158
DA:99,158
DA:101,158
DA:103,158
DA:104,175
DA:106,319
DA:107,319
DA:108,319
DA:109,319
DA:110,319
DA:111,319
DA:112,319
DA:114,319
DA:115,4
DA:116,315
DA:118,315
DA:120,315
DA:121,315
DA:122,315
DA:123,315
DA:124,315
DA:125,315
DA:126,315
DA:129,315
DA:131,315
DA:133,315
DA:134,175
DA:135,175
DA:136,175
DA:137,175
DA:139,315
DA:140,162
DA:141,162
DA:142,162
DA:143,162
DA:145,315
DA:147,315
DA:149,315
DA:150,319
BRF:0
BRH:0
LF:105
LH:105
end_of_record
SF:/home/matthew/develop/personal/karva/crates/karva_core/src/collection/models/case.rs
FN:126,_RNCNCNvMNtNtNtCs4RrqI5pJN37_10karva_core10collection6models4caseNtB6_8TestCase3run00Bc_
FN:189,_RNCNCNvMNtNtNtCs4RrqI5pJN37_10karva_core10collection6models4caseNtB6_8TestCase3run0s0_0Bc_
FN:178,_RNCNCNvMNtNtNtCs4RrqI5pJN37_10karva_core10collection6models4caseNtB6_8TestCase3run0s_0Bc_
FN:85,_RNCNvMNtNtNtCs4RrqI5pJN37_10karva_core10collection6models4caseNtB4_8TestCase3run0Ba_
FN:59,_RNvMNtNtNtCs4RrqI5pJN37_10karva_core10collection6models4caseNtB2_8TestCase14add_finalizers
FN:63,_RNvMNtNtNtCs4RrqI5pJN37_10karva_core10collection6models4caseNtB2_8TestCase23add_fixture_diagnostics
FN:43,_RNvMNtNtNtCs4RrqI5pJN37_10karva_core10collection6models4caseNtB2_8TestCase3new
FN:70,_RNvMNtNtNtCs4RrqI5pJN37_10karva_core10collection6models4caseNtB2_8TestCase3run
FN:251,_RNvNtNtNtCs4RrqI5pJN37_10karva_core10collection6models4case14full_test_name
FN:215,_RNvNtNtNtCs4RrqI5pJN37_10karva_core10collection6models4case17is_skip_exception
FN:233,_RNvNtNtNtCs4RrqI5pJN37_10karva_core10collection6models4case19extract_skip_reason
FN:126,_RNCNCNvMNtNtNtCs1eKvc9ZrgUW_10karva_core10collection6models4caseNtB6_8TestCase3run00Bc_
FN:189,_RNCNCNvMNtNtNtCs1eKvc9ZrgUW_10karva_core10collection6models4caseNtB6_8TestCase3run0s0_0Bc_
FN:178,_RNCNCNvMNtNtNtCs1eKvc9ZrgUW_10karva_core10collection6models4caseNtB6_8TestCase3run0s_0Bc_
FN:85,_RNCNvMNtNtNtCs1eKvc9ZrgUW_10karva_core10collection6models4caseNtB4_8TestCase3run0Ba_
FN:59,_RNvMNtNtNtCs1eKvc9ZrgUW_10karva_core10collection6models4caseNtB2_8TestCase14add_finalizers
FN:63,_RNvMNtNtNtCs1eKvc9ZrgUW_10karva_core10collection6models4caseNtB2_8TestCase23add_fixture_diagnostics
FN:43,_RNvMNtNtNtCs1eKvc9ZrgUW_10karva_core10collection6models4caseNtB2_8TestCase3new
FN:70,_RNvMNtNtNtCs1eKvc9ZrgUW_10karva_core10collection6models4caseNtB2_8TestCase3run
FN:251,_RNvNtNtNtCs1eKvc9ZrgUW_10karva_core10collection6models4case14full_test_name
FN:215,_RNvNtNtNtCs1eKvc9ZrgUW_10karva_core10collection6models4case17is_skip_exception
FN:233,_RNvNtNtNtCs1eKvc9ZrgUW_10karva_core10collection6models4case19extract_skip_reason
FNDA:5,_RNCNCNvMNtNtNtCs4RrqI5pJN37_10karva_core10collection6models4caseNtB6_8TestCase3run00Bc_
FNDA:5,_RNCNCNvMNtNtNtCs4RrqI5pJN37_10karva_core10collection6models4caseNtB6_8TestCase3run0s0_0Bc_
FNDA:4,_RNCNCNvMNtNtNtCs4RrqI5pJN37_10karva_core10collection6models4caseNtB6_8TestCase3run0s_0Bc_
FNDA:271,_RNCNvMNtNtNtCs4RrqI5pJN37_10karva_core10collection6models4caseNtB4_8TestCase3run0Ba_
FNDA:230,_RNvMNtNtNtCs4RrqI5pJN37_10karva_core10collection6models4caseNtB2_8TestCase14add_finalizers
FNDA:230,_RNvMNtNtNtCs4RrqI5pJN37_10karva_core10collection6models4caseNtB2_8TestCase23add_fixture_diagnostics
FNDA:272,_RNvMNtNtNtCs4RrqI5pJN37_10karva_core10collection6models4caseNtB2_8TestCase3new
FNDA:271,_RNvMNtNtNtCs4RrqI5pJN37_10karva_core10collection6models4caseNtB2_8TestCase3run
FNDA:271,_RNvNtNtNtCs4RrqI5pJN37_10karva_core10collection6models4case14full_test_name
FNDA:39,_RNvNtNtNtCs4RrqI5pJN37_10karva_core10collection6models4case17is_skip_exception
FNDA:12,_RNvNtNtNtCs4RrqI5pJN37_10karva_core10collection6models4case19extract_skip_reason
FNDA:0,_RNCNCNvMNtNtNtCs1eKvc9ZrgUW_10karva_core10collection6models4caseNtB6_8TestCase3run00Bc_
FNDA:0,_RNCNCNvMNtNtNtCs1eKvc9ZrgUW_10karva_core10collection6models4caseNtB6_8TestCase3run0s0_0Bc_
FNDA:0,_RNCNCNvMNtNtNtCs1eKvc9ZrgUW_10karva_core10collection6models4caseNtB6_8TestCase3run0s_0Bc_
FNDA:2,_RNCNvMNtNtNtCs1eKvc9ZrgUW_10karva_core10collection6models4caseNtB4_8TestCase3run0Ba_
FNDA:2,_RNvMNtNtNtCs1eKvc9ZrgUW_10karva_core10collection6models4caseNtB2_8TestCase14add_finalizers
FNDA:2,_RNvMNtNtNtCs1eKvc9ZrgUW_10karva_core10collection6models4caseNtB2_8TestCase23add_fixture_diagnostics
FNDA:2,_RNvMNtNtNtCs1eKvc9ZrgUW_10karva_core10collection6models4caseNtB2_8TestCase3new
FNDA:2,_RNvMNtNtNtCs1eKvc9ZrgUW_10karva_core10collection6models4caseNtB2_8TestCase3run
FNDA:2,_RNvNtNtNtCs1eKvc9ZrgUW_10karva_core10collection6models4case14full_test_name
FNDA:0,_RNvNtNtNtCs1eKvc9ZrgUW_10karva_core10collection6models4case17is_skip_exception
FNDA:0,_RNvNtNtNtCs1eKvc9ZrgUW_10karva_core10collection6models4case19extract_skip_reason
FNF:11
FNH:11
DA:43,274
DA:44,274
DA:45,274
DA:46,274
DA:47,274
DA:48,274
DA:49,274
DA:50,274
DA:51,274
DA:52,274
DA:53,274
DA:54,274
DA:55,274
DA:56,274
DA:57,274
DA:59,232
DA:60,232
DA:61,232
DA:63,232
DA:64,232
DA:65,232
DA:70,273
DA:71,273
DA:72,273
DA:73,273
DA:74,273
DA:75,273
DA:76,273
DA:77,273
DA:78,273
DA:79,273
DA:80,273
DA:81,273
DA:82,273
DA:83,273
DA:85,273
DA:86,273
DA:89,273
DA:90,26
DA:91,20
DA:92,20
DA:93,20
DA:94,20
DA:95,20
DA:96,20
DA:98,20
DA:99,6
DA:100,247
DA:103,253
DA:104,253
DA:105,253
DA:106,253
DA:108,253
DA:109,92
DA:111,161
DA:113,211
DA:114,211
DA:115,206
DA:116,206
DA:119,161
DA:122,253
DA:123,214
DA:126,5
DA:127,5
DA:128,5
DA:129,5
DA:130,5
DA:131,5
DA:135,5
DA:136,5
DA:137,5
DA:138,5
DA:140,5
DA:142,5
DA:143,209
DA:145,209
DA:146,209
DA:147,209
DA:148,209
DA:151,209
DA:155,39
DA:156,12
DA:158,12
DA:159,12
DA:160,12
DA:161,12
DA:164,12
DA:165,27
DA:168,27
DA:169,18
DA:170,18
DA:171,18
DA:172,18
DA:175,18
DA:176,9
DA:178,9
DA:179,4
DA:180,4
DA:181,4
DA:182,4
DA:183,4
DA:184,4
DA:187,4
DA:189,9
DA:190,5
DA:191,5
DA:192,5
DA:193,5
DA:195,9
DA:196,9
DA:197,9
DA:198,9
DA:201,9
DA:203,9
DA:206,273
DA:208,273
DA:210,273
DA:211,273
DA:215,39
DA:217,39
DA:218,9
DA:219,30
DA:222,30
DA:223,30
DA:224,30
DA:226,3
DA:227,27
DA:229,27
DA:230,39
DA:233,12
DA:234,12
DA:237,12
DA:238,12
DA:239,12
DA:240,12
DA:242,12
DA:243,3
DA:244,9
DA:245,9
DA:246,0
DA:248,0
DA:249,12
DA:251,273
DA:252,273
DA:253,112
DA:255,161
DA:256,161
DA:257,161
DA:259,227
DA:260,227
DA:261,66
DA:262,161
DA:263,227
DA:264,227
DA:265,227
DA:267,161
DA:269,273
BRF:0
BRH:0
LF:161
LH:159
end_of_record
SF:/home/matthew/develop/personal/karva/crates/karva_core/src/collection/models/module.rs
FN:33,_RNvMNtNtNtCs4RrqI5pJN37_10karva_core10collection6models6moduleNtB2_15CollectedModule14add_finalizers
FN:29,_RNvMNtNtNtCs4RrqI5pJN37_10karva_core10collection6models6moduleNtB2_15CollectedModule14add_test_cases
FN:25,_RNvMNtNtNtCs4RrqI5pJN37_10karva_core10collection6models6moduleNtB2_15CollectedModule16total_test_cases
FN:37,_RNvMNtNtNtCs4RrqI5pJN37_10karva_core10collection6models6moduleNtB2_15CollectedModule23add_fixture_diagnostics
FN:41,_RNvMNtNtNtCs4RrqI5pJN37_10karva_core10collection6models6moduleNtB2_15CollectedModule3run
FN:56,_RNCNvMNtNtNtCs4RrqI5pJN37_10karva_core10collection6models6moduleNtB4_15CollectedModule3run0Ba_
FN:56,_RNCNvMNtNtNtCs1eKvc9ZrgUW_10karva_core10collection6models6moduleNtB4_15CollectedModule3run0Ba_
FN:33,_RNvMNtNtNtCs1eKvc9ZrgUW_10karva_core10collection6models6moduleNtB2_15CollectedModule14add_finalizers
FN:29,_RNvMNtNtNtCs1eKvc9ZrgUW_10karva_core10collection6models6moduleNtB2_15CollectedModule14add_test_cases
FN:25,_RNvMNtNtNtCs1eKvc9ZrgUW_10karva_core10collection6models6moduleNtB2_15CollectedModule16total_test_cases
FN:37,_RNvMNtNtNtCs1eKvc9ZrgUW_10karva_core10collection6models6moduleNtB2_15CollectedModule23add_fixture_diagnostics
FN:41,_RNvMNtNtNtCs1eKvc9ZrgUW_10karva_core10collection6models6moduleNtB2_15CollectedModule3run
FNDA:156,_RNvMNtNtNtCs4RrqI5pJN37_10karva_core10collection6models6moduleNtB2_15CollectedModule14add_finalizers
FNDA:156,_RNvMNtNtNtCs4RrqI5pJN37_10karva_core10collection6models6moduleNtB2_15CollectedModule14add_test_cases
FNDA:173,_RNvMNtNtNtCs4RrqI5pJN37_10karva_core10collection6models6moduleNtB2_15CollectedModule16total_test_cases
FNDA:156,_RNvMNtNtNtCs4RrqI5pJN37_10karva_core10collection6models6moduleNtB2_15CollectedModule23add_fixture_diagnostics
FNDA:173,_RNvMNtNtNtCs4RrqI5pJN37_10karva_core10collection6models6moduleNtB2_15CollectedModule3run
FNDA:173,_RNCNvMNtNtNtCs4RrqI5pJN37_10karva_core10collection6models6moduleNtB4_15CollectedModule3run0Ba_
FNDA:2,_RNCNvMNtNtNtCs1eKvc9ZrgUW_10karva_core10collection6models6moduleNtB4_15CollectedModule3run0Ba_
FNDA:2,_RNvMNtNtNtCs1eKvc9ZrgUW_10karva_core10collection6models6moduleNtB2_15CollectedModule14add_finalizers
FNDA:2,_RNvMNtNtNtCs1eKvc9ZrgUW_10karva_core10collection6models6moduleNtB2_15CollectedModule14add_test_cases
FNDA:2,_RNvMNtNtNtCs1eKvc9ZrgUW_10karva_core10collection6models6moduleNtB2_15CollectedModule16total_test_cases
FNDA:2,_RNvMNtNtNtCs1eKvc9ZrgUW_10karva_core10collection6models6moduleNtB2_15CollectedModule23add_fixture_diagnostics
FNDA:2,_RNvMNtNtNtCs1eKvc9ZrgUW_10karva_core10collection6models6moduleNtB2_15CollectedModule3run
FNF:6
FNH:6
DA:25,175
DA:26,175
DA:27,175
DA:29,158
DA:30,158
DA:31,158
DA:33,158
DA:34,158
DA:35,158
DA:37,158
DA:38,158
DA:39,158
DA:41,175
DA:42,175
DA:43,175
DA:44,175
DA:45,175
DA:46,175
DA:47,175
DA:48,175
DA:49,175
DA:50,175
DA:51,175
DA:52,175
DA:54,175
DA:56,175
DA:57,175
DA:59,175
DA:60,175
DA:62,447
DA:63,273
DA:65,273
DA:66,1
DA:67,1
DA:68,272
DA:71,174
DA:73,174
DA:74,175
BRF:0
BRH:0
LF:39
LH:39
end_of_record
SF:/home/matthew/develop/personal/karva/crates/karva_core/src/collection/models/package.rs
FN:28,_RNvMNtNtNtCs4RrqI5pJN37_10karva_core10collection6models7packageNtB2_16CollectedPackage10add_module
FN:32,_RNvMNtNtNtCs4RrqI5pJN37_10karva_core10collection6models7packageNtB2_16CollectedPackage11add_package
FN:36,_RNvMNtNtNtCs4RrqI5pJN37_10karva_core10collection6models7packageNtB2_16CollectedPackage14add_finalizers
FN:45,_RNvMNtNtNtCs4RrqI5pJN37_10karva_core10collection6models7packageNtB2_16CollectedPackage16total_test_cases
FN:40,_RNvMNtNtNtCs4RrqI5pJN37_10karva_core10collection6models7packageNtB2_16CollectedPackage23add_fixture_diagnostics
FN:56,_RNvMNtNtNtCs4RrqI5pJN37_10karva_core10collection6models7packageNtB2_16CollectedPackage3run
FN:72,_RNCNvMNtNtNtCs4RrqI5pJN37_10karva_core10collection6models7packageNtB4_16CollectedPackage3run0Ba_
FN:72,_RNCNvMNtNtNtCs1eKvc9ZrgUW_10karva_core10collection6models7packageNtB4_16CollectedPackage3run0Ba_
FN:28,_RNvMNtNtNtCs1eKvc9ZrgUW_10karva_core10collection6models7packageNtB2_16CollectedPackage10add_module
FN:32,_RNvMNtNtNtCs1eKvc9ZrgUW_10karva_core10collection6models7packageNtB2_16CollectedPackage11add_package
FN:36,_RNvMNtNtNtCs1eKvc9ZrgUW_10karva_core10collection6models7packageNtB2_16CollectedPackage14add_finalizers
FN:45,_RNvMNtNtNtCs1eKvc9ZrgUW_10karva_core10collection6models7packageNtB2_16CollectedPackage16total_test_cases
FN:40,_RNvMNtNtNtCs1eKvc9ZrgUW_10karva_core10collection6models7packageNtB2_16CollectedPackage23add_fixture_diagnostics
FN:56,_RNvMNtNtNtCs1eKvc9ZrgUW_10karva_core10collection6models7packageNtB2_16CollectedPackage3run
FNDA:173,_RNvMNtNtNtCs4RrqI5pJN37_10karva_core10collection6models7packageNtB2_16CollectedPackage10add_module
FNDA:160,_RNvMNtNtNtCs4RrqI5pJN37_10karva_core10collection6models7packageNtB2_16CollectedPackage11add_package
FNDA:466,_RNvMNtNtNtCs4RrqI5pJN37_10karva_core10collection6models7packageNtB2_16CollectedPackage14add_finalizers
FNDA:315,_RNvMNtNtNtCs4RrqI5pJN37_10karva_core10collection6models7packageNtB2_16CollectedPackage16total_test_cases
FNDA:466,_RNvMNtNtNtCs4RrqI5pJN37_10karva_core10collection6models7packageNtB2_16CollectedPackage23add_fixture_diagnostics
FNDA:315,_RNvMNtNtNtCs4RrqI5pJN37_10karva_core10collection6models7packageNtB2_16CollectedPackage3run
FNDA:315,_RNCNvMNtNtNtCs4RrqI5pJN37_10karva_core10collection6models7packageNtB4_16CollectedPackage3run0Ba_
FNDA:4,_RNCNvMNtNtNtCs1eKvc9ZrgUW_10karva_core10collection6models7packageNtB4_16CollectedPackage3run0Ba_
FNDA:2,_RNvMNtNtNtCs1eKvc9ZrgUW_10karva_core10collection6models7packageNtB2_16CollectedPackage10add_module
FNDA:2,_RNvMNtNtNtCs1eKvc9ZrgUW_10karva_core10collection6models7packageNtB2_16CollectedPackage11add_package
FNDA:6,_RNvMNtNtNtCs1eKvc9ZrgUW_10karva_core10collection6models7packageNtB2_16CollectedPackage14add_finalizers
FNDA:4,_RNvMNtNtNtCs1eKvc9ZrgUW_10karva_core10collection6models7packageNtB2_16CollectedPackage16total_test_cases
FNDA:6,_RNvMNtNtNtCs1eKvc9ZrgUW_10karva_core10collection6models7packageNtB2_16CollectedPackage23add_fixture_diagnostics
FNDA:4,_RNvMNtNtNtCs1eKvc9ZrgUW_10karva_core10collection6models7packageNtB2_16CollectedPackage3run
FNF:7
FNH:7
DA:28,175
DA:29,175
DA:30,175
DA:32,162
DA:33,162
DA:34,162
DA:36,472
DA:37,472
DA:38,472
DA:40,472
DA:41,472
DA:42,472
DA:45,319
DA:46,319
DA:47,494
DA:48,175
DA:49,175
DA:50,481
DA:51,162
DA:52,162
DA:53,319
DA:54,319
DA:56,319
DA:57,319
DA:58,319
DA:59,319
DA:60,319
DA:61,319
DA:62,319
DA:63,319
DA:64,319
DA:65,319
DA:66,319
DA:67,319
DA:68,319
DA:70,319
DA:72,319
DA:73,319
DA:75,319
DA:76,319
DA:78,493
DA:79,175
DA:81,175
DA:82,1
DA:83,1
DA:84,174
DA:87,479
DA:88,162
DA:90,162
DA:91,1
DA:92,1
DA:93,161
DA:96,317
DA:98,317
DA:99,319
BRF:0
BRH:0
LF:56
LH:56
end_of_record
SF:/home/matthew/develop/personal/karva/crates/karva_core/src/diagnostic/diagnostic.rs
FN:47,_RNvMNtNtCs4RrqI5pJN37_10karva_core10diagnostic10diagnosticNtB2_10Diagnostic10is_warning
FN:51,_RNvMNtNtCs4RrqI5pJN37_10karva_core10diagnostic10diagnosticNtB2_10Diagnostic14from_test_fail
FN:25,_RNvMNtNtCs4RrqI5pJN37_10karva_core10diagnostic10diagnosticNtB2_10Diagnostic15is_test_failure
FN:100,_RNvMNtNtCs4RrqI5pJN37_10karva_core10diagnostic10diagnosticNtB2_10Diagnostic16missing_fixtures
FN:78,_RNvMNtNtCs4RrqI5pJN37_10karva_core10diagnostic10diagnosticNtB2_10Diagnostic17from_fixture_fail
FN:36,_RNvMNtNtCs4RrqI5pJN37_10karva_core10diagnostic10diagnosticNtB2_10Diagnostic18is_fixture_failure
FN:69,_RNvMNtNtCs4RrqI5pJN37_10karva_core10diagnostic10diagnosticNtB2_10Diagnostic19pass_on_expect_fail
FN:113,_RNvMNtNtCs4RrqI5pJN37_10karva_core10diagnostic10diagnosticNtB2_10Diagnostic21into_missing_fixtures
FN:21,_RNvMNtNtCs4RrqI5pJN37_10karva_core10diagnostic10diagnosticNtB2_10Diagnostic7display
FN:94,_RNvMNtNtCs4RrqI5pJN37_10karva_core10diagnostic10diagnosticNtB2_10Diagnostic7warning
FN:120,_RNvMNtNtCs4RrqI5pJN37_10karva_core10diagnostic10diagnosticNtB2_10Diagnostic8location
FN:167,_RNvMs0_NtNtCs4RrqI5pJN37_10karva_core10diagnostic10diagnosticNtB5_21TestFailureDiagnostic8location
FN:269,_RNvMs1_NtNtCs4RrqI5pJN37_10karva_core10diagnostic10diagnosticNtB5_26FunctionDefinitionLocation3new
FN:146,_RNvMs_NtNtCs4RrqI5pJN37_10karva_core10diagnostic10diagnosticNtB4_19DiscoveryDiagnostic15invalid_fixture
FN:142,_RNvMs_NtNtCs4RrqI5pJN37_10karva_core10diagnostic10diagnosticNtB4_19DiscoveryDiagnostic18invalid_path_error
FN:138,_RNvMs_NtNtCs4RrqI5pJN37_10karva_core10diagnostic10diagnosticNtB4_19DiscoveryDiagnostic7display
FN:47,_RNvMNtNtCs1eKvc9ZrgUW_10karva_core10diagnostic10diagnosticNtB2_10Diagnostic10is_warning
FN:51,_RNvMNtNtCs1eKvc9ZrgUW_10karva_core10diagnostic10diagnosticNtB2_10Diagnostic14from_test_fail
FN:25,_RNvMNtNtCs1eKvc9ZrgUW_10karva_core10diagnostic10diagnosticNtB2_10Diagnostic15is_test_failure
FN:100,_RNvMNtNtCs1eKvc9ZrgUW_10karva_core10diagnostic10diagnosticNtB2_10Diagnostic16missing_fixtures
FN:78,_RNvMNtNtCs1eKvc9ZrgUW_10karva_core10diagnostic10diagnosticNtB2_10Diagnostic17from_fixture_fail
FN:36,_RNvMNtNtCs1eKvc9ZrgUW_10karva_core10diagnostic10diagnosticNtB2_10Diagnostic18is_fixture_failure
FN:69,_RNvMNtNtCs1eKvc9ZrgUW_10karva_core10diagnostic10diagnosticNtB2_10Diagnostic19pass_on_expect_fail
FN:113,_RNvMNtNtCs1eKvc9ZrgUW_10karva_core10diagnostic10diagnosticNtB2_10Diagnostic21into_missing_fixtures
FN:21,_RNvMNtNtCs1eKvc9ZrgUW_10karva_core10diagnostic10diagnosticNtB2_10Diagnostic7display
FN:94,_RNvMNtNtCs1eKvc9ZrgUW_10karva_core10diagnostic10diagnosticNtB2_10Diagnostic7warning
FN:120,_RNvMNtNtCs1eKvc9ZrgUW_10karva_core10diagnostic10diagnosticNtB2_10Diagnostic8location
FN:167,_RNvMs0_NtNtCs1eKvc9ZrgUW_10karva_core10diagnostic10diagnosticNtB5_21TestFailureDiagnostic8location
FN:269,_RNvMs1_NtNtCs1eKvc9ZrgUW_10karva_core10diagnostic10diagnosticNtB5_26FunctionDefinitionLocation3new
FN:146,_RNvMs_NtNtCs1eKvc9ZrgUW_10karva_core10diagnostic10diagnosticNtB4_19DiscoveryDiagnostic15invalid_fixture
FN:142,_RNvMs_NtNtCs1eKvc9ZrgUW_10karva_core10diagnostic10diagnosticNtB4_19DiscoveryDiagnostic18invalid_path_error
FN:138,_RNvMs_NtNtCs1eKvc9ZrgUW_10karva_core10diagnostic10diagnosticNtB4_19DiscoveryDiagnostic7display
FNDA:16,_RNvMNtNtCs4RrqI5pJN37_10karva_core10diagnostic10diagnosticNtB2_10Diagnostic10is_warning
FNDA:4,_RNvMNtNtCs4RrqI5pJN37_10karva_core10diagnostic10diagnosticNtB2_10Diagnostic14from_test_fail
FNDA:16,_RNvMNtNtCs4RrqI5pJN37_10karva_core10diagnostic10diagnosticNtB2_10Diagnostic15is_test_failure
FNDA:18,_RNvMNtNtCs4RrqI5pJN37_10karva_core10diagnostic10diagnosticNtB2_10Diagnostic16missing_fixtures
FNDA:1,_RNvMNtNtCs4RrqI5pJN37_10karva_core10diagnostic10diagnosticNtB2_10Diagnostic17from_fixture_fail
FNDA:16,_RNvMNtNtCs4RrqI5pJN37_10karva_core10diagnostic10diagnosticNtB2_10Diagnostic18is_fixture_failure
FNDA:5,_RNvMNtNtCs4RrqI5pJN37_10karva_core10diagnostic10diagnosticNtB2_10Diagnostic19pass_on_expect_fail
FNDA:5,_RNvMNtNtCs4RrqI5pJN37_10karva_core10diagnostic10diagnosticNtB2_10Diagnostic21into_missing_fixtures
FNDA:16,_RNvMNtNtCs4RrqI5pJN37_10karva_core10diagnostic10diagnosticNtB2_10Diagnostic7display
FNDA:0,_RNvMNtNtCs4RrqI5pJN37_10karva_core10diagnostic10diagnosticNtB2_10Diagnostic7warning
FNDA:14,_RNvMNtNtCs4RrqI5pJN37_10karva_core10diagnostic10diagnosticNtB2_10Diagnostic8location
FNDA:9,_RNvMs0_NtNtCs4RrqI5pJN37_10karva_core10diagnostic10diagnosticNtB5_21TestFailureDiagnostic8location
FNDA:29,_RNvMs1_NtNtCs4RrqI5pJN37_10karva_core10diagnostic10diagnosticNtB5_26FunctionDefinitionLocation3new
FNDA:1,_RNvMs_NtNtCs4RrqI5pJN37_10karva_core10diagnostic10diagnosticNtB4_19DiscoveryDiagnostic15invalid_fixture
FNDA:0,_RNvMs_NtNtCs4RrqI5pJN37_10karva_core10diagnostic10diagnosticNtB4_19DiscoveryDiagnostic18invalid_path_error
FNDA:1,_RNvMs_NtNtCs4RrqI5pJN37_10karva_core10diagnostic10diagnosticNtB4_19DiscoveryDiagnostic7display
FNDA:2,_RNvMNtNtCs1eKvc9ZrgUW_10karva_core10diagnostic10diagnosticNtB2_10Diagnostic10is_warning
FNDA:0,_RNvMNtNtCs1eKvc9ZrgUW_10karva_core10diagnostic10diagnosticNtB2_10Diagnostic14from_test_fail
FNDA:2,_RNvMNtNtCs1eKvc9ZrgUW_10karva_core10diagnostic10diagnosticNtB2_10Diagnostic15is_test_failure
FNDA:0,_RNvMNtNtCs1eKvc9ZrgUW_10karva_core10diagnostic10diagnosticNtB2_10Diagnostic16missing_fixtures
FNDA:0,_RNvMNtNtCs1eKvc9ZrgUW_10karva_core10diagnostic10diagnosticNtB2_10Diagnostic17from_fixture_fail
FNDA:2,_RNvMNtNtCs1eKvc9ZrgUW_10karva_core10diagnostic10diagnosticNtB2_10Diagnostic18is_fixture_failure
FNDA:0,_RNvMNtNtCs1eKvc9ZrgUW_10karva_core10diagnostic10diagnosticNtB2_10Diagnostic19pass_on_expect_fail
FNDA:0,_RNvMNtNtCs1eKvc9ZrgUW_10karva_core10diagnostic10diagnosticNtB2_10Diagnostic21into_missing_fixtures
FNDA:2,_RNvMNtNtCs1eKvc9ZrgUW_10karva_core10diagnostic10diagnosticNtB2_10Diagnostic7display
FNDA:2,_RNvMNtNtCs1eKvc9ZrgUW_10karva_core10diagnostic10diagnosticNtB2_10Diagnostic7warning
FNDA:0,_RNvMNtNtCs1eKvc9ZrgUW_10karva_core10diagnostic10diagnosticNtB2_10Diagnostic8location
FNDA:0,_RNvMs0_NtNtCs1eKvc9ZrgUW_10karva_core10diagnostic10diagnosticNtB5_21TestFailureDiagnostic8location
FNDA:0,_RNvMs1_NtNtCs1eKvc9ZrgUW_10karva_core10diagnostic10diagnosticNtB5_26FunctionDefinitionLocation3new
FNDA:0,_RNvMs_NtNtCs1eKvc9ZrgUW_10karva_core10diagnostic10diagnosticNtB4_19DiscoveryDiagnostic15invalid_fixture
FNDA:1,_RNvMs_NtNtCs1eKvc9ZrgUW_10karva_core10diagnostic10diagnosticNtB4_19DiscoveryDiagnostic18invalid_path_error
FNDA:0,_RNvMs_NtNtCs1eKvc9ZrgUW_10karva_core10diagnostic10diagnosticNtB4_19DiscoveryDiagnostic7display
FNF:16
FNH:16
DA:21,18
DA:22,18
DA:23,18
DA:25,18
DA:26,4
DA:27,6
DA:34,18
DA:36,18
DA:37,16
DA:38,6
DA:45,18
DA:47,18
DA:48,18
DA:49,18
DA:51,4
DA:52,4
DA:53,4
DA:54,4
DA:55,4
DA:56,4
DA:57,4
DA:58,4
DA:60,4
DA:61,4
DA:62,4
DA:63,4
DA:64,4
DA:65,4
DA:66,4
DA:67,4
DA:69,5
DA:70,5
DA:71,5
DA:72,5
DA:73,5
DA:74,5
DA:75,5
DA:76,5
DA:78,1
DA:79,1
DA:80,1
DA:81,1
DA:82,1
DA:83,1
DA:84,1
DA:85,1
DA:87,1
DA:88,1
DA:89,1
DA:90,1
DA:91,1
DA:92,1
DA:94,2
DA:95,2
DA:96,2
DA:97,2
DA:98,2
DA:100,18
DA:101,18
DA:102,18
DA:103,18
DA:104,18
DA:105,18
DA:106,18
DA:107,18
DA:108,18
DA:109,18
DA:110,18
DA:111,18
DA:113,5
DA:114,5
DA:115,5
DA:116,0
DA:118,5
DA:120,14
DA:121,14
DA:122,9
DA:123,5
DA:124,0
DA:125,0
DA:127,14
DA:138,1
DA:139,1
DA:140,1
DA:142,1
DA:143,1
DA:144,1
DA:146,1
DA:147,1
DA:148,1
DA:149,1
DA:150,1
DA:151,1
DA:152,1
DA:153,1
DA:154,1
DA:155,1
DA:167,9
DA:168,9
DA:169,4
DA:170,5
DA:171,5
DA:174,9
DA:269,29
DA:270,29
DA:271,29
DA:272,29
DA:273,29
DA:274,29
BRF:0
BRH:0
LF:109
LH:106
end_of_record
SF:/home/matthew/develop/personal/karva/crates/karva_core/src/diagnostic/render.rs
FN:150,_RNvXs2_NtNtCs4RrqI5pJN37_10karva_core10diagnostic6renderNtNtB7_10diagnostic12FunctionKindNtNtCs3vi8RLxhvdw_4core3fmt7Display3fmt
FN:38,_RNCNvXs_NtNtCs4RrqI5pJN37_10karva_core10diagnostic6renderNtB6_17DisplayDiagnosticNtNtCs3vi8RLxhvdw_4core3fmt7Display3fmt0Ba_
FN:97,_RNCNvXs_NtNtCs4RrqI5pJN37_10karva_core10diagnostic6renderNtB6_17DisplayDiagnosticNtNtCs3vi8RLxhvdw_4core3fmt7Display3fmts_0Ba_
FN:15,_RNvMNtNtCs4RrqI5pJN37_10karva_core10diagnostic6renderNtB2_17DisplayDiagnostic3new
FN:119,_RNvMs0_NtNtCs4RrqI5pJN37_10karva_core10diagnostic6renderNtB5_26DisplayDiscoveryDiagnostic3new
FN:125,_RNvXs1_NtNtCs4RrqI5pJN37_10karva_core10diagnostic6renderNtB5_26DisplayDiscoveryDiagnosticNtNtCs3vi8RLxhvdw_4core3fmt7Display3fmt
FN:21,_RNvXs_NtNtCs4RrqI5pJN37_10karva_core10diagnostic6renderNtB4_17DisplayDiagnosticNtNtCs3vi8RLxhvdw_4core3fmt7Display3fmt
FN:38,_RNCNvXs_NtNtCs1eKvc9ZrgUW_10karva_core10diagnostic6renderNtB6_17DisplayDiagnosticNtNtCs3vi8RLxhvdw_4core3fmt7Display3fmt0Ba_
FN:97,_RNCNvXs_NtNtCs1eKvc9ZrgUW_10karva_core10diagnostic6renderNtB6_17DisplayDiagnosticNtNtCs3vi8RLxhvdw_4core3fmt7Display3fmts_0Ba_
FN:150,_RNvXs2_NtNtCs1eKvc9ZrgUW_10karva_core10diagnostic6renderNtNtB7_10diagnostic12FunctionKindNtNtCs3vi8RLxhvdw_4core3fmt7Display3fmt
FN:15,_RNvMNtNtCs1eKvc9ZrgUW_10karva_core10diagnostic6renderNtB2_17DisplayDiagnostic3new
FN:119,_RNvMs0_NtNtCs1eKvc9ZrgUW_10karva_core10diagnostic6renderNtB5_26DisplayDiscoveryDiagnostic3new
FN:125,_RNvXs1_NtNtCs1eKvc9ZrgUW_10karva_core10diagnostic6renderNtB5_26DisplayDiscoveryDiagnosticNtNtCs3vi8RLxhvdw_4core3fmt7Display3fmt
FN:21,_RNvXs_NtNtCs1eKvc9ZrgUW_10karva_core10diagnostic6renderNtB4_17DisplayDiagnosticNtNtCs3vi8RLxhvdw_4core3fmt7Display3fmt
FNDA:6,_RNvXs2_NtNtCs4RrqI5pJN37_10karva_core10diagnostic6renderNtNtB7_10diagnostic12FunctionKindNtNtCs3vi8RLxhvdw_4core3fmt7Display3fmt
FNDA:4,_RNCNvXs_NtNtCs4RrqI5pJN37_10karva_core10diagnostic6renderNtB6_17DisplayDiagnosticNtNtCs3vi8RLxhvdw_4core3fmt7Display3fmt0Ba_
FNDA:1,_RNCNvXs_NtNtCs4RrqI5pJN37_10karva_core10diagnostic6renderNtB6_17DisplayDiagnosticNtNtCs3vi8RLxhvdw_4core3fmt7Display3fmts_0Ba_
FNDA:16,_RNvMNtNtCs4RrqI5pJN37_10karva_core10diagnostic6renderNtB2_17DisplayDiagnostic3new
FNDA:1,_RNvMs0_NtNtCs4RrqI5pJN37_10karva_core10diagnostic6renderNtB5_26DisplayDiscoveryDiagnostic3new
FNDA:1,_RNvXs1_NtNtCs4RrqI5pJN37_10karva_core10diagnostic6renderNtB5_26DisplayDiscoveryDiagnosticNtNtCs3vi8RLxhvdw_4core3fmt7Display3fmt
FNDA:16,_RNvXs_NtNtCs4RrqI5pJN37_10karva_core10diagnostic6renderNtB4_17DisplayDiagnosticNtNtCs3vi8RLxhvdw_4core3fmt7Display3fmt
FNDA:0,_RNCNvXs_NtNtCs1eKvc9ZrgUW_10karva_core10diagnostic6renderNtB6_17DisplayDiagnosticNtNtCs3vi8RLxhvdw_4core3fmt7Display3fmt0Ba_
FNDA:0,_RNCNvXs_NtNtCs1eKvc9ZrgUW_10karva_core10diagnostic6renderNtB6_17DisplayDiagnosticNtNtCs3vi8RLxhvdw_4core3fmt7Display3fmts_0Ba_
FNDA:0,_RNvXs2_NtNtCs1eKvc9ZrgUW_10karva_core10diagnostic6renderNtNtB7_10diagnostic12FunctionKindNtNtCs3vi8RLxhvdw_4core3fmt7Display3fmt
FNDA:2,_RNvMNtNtCs1eKvc9ZrgUW_10karva_core10diagnostic6renderNtB2_17DisplayDiagnostic3new
FNDA:0,_RNvMs0_NtNtCs1eKvc9ZrgUW_10karva_core10diagnostic6renderNtB5_26DisplayDiscoveryDiagnostic3new
FNDA:0,_RNvXs1_NtNtCs1eKvc9ZrgUW_10karva_core10diagnostic6renderNtB5_26DisplayDiscoveryDiagnosticNtNtCs3vi8RLxhvdw_4core3fmt7Display3fmt
FNDA:2,_RNvXs_NtNtCs1eKvc9ZrgUW_10karva_core10diagnostic6renderNtB4_17DisplayDiagnosticNtNtCs3vi8RLxhvdw_4core3fmt7Display3fmt
FNF:7
FNH:7
DA:15,18
DA:16,18
DA:17,18
DA:21,18
DA:22,18
DA:23,9
DA:24,4
DA:28,4
DA:29,4
DA:31,4
DA:32,4
DA:33,4
DA:35,4
DA:36,4
DA:37,4
DA:38,4
DA:39,4
DA:41,4
DA:42,4
DA:43,4
DA:44,0
DA:45,4
DA:46,3
DA:47,1
DA:49,5
DA:53,5
DA:54,5
DA:56,5
DA:57,5
DA:59,5
DA:60,5
DA:61,5
DA:62,0
DA:63,5
DA:64,3
DA:65,2
DA:71,6
DA:72,6
DA:74,6
DA:75,6
DA:77,6
DA:78,6
DA:79,6
DA:80,0
DA:82,2
DA:83,2
DA:88,1
DA:89,1
DA:91,1
DA:92,1
DA:94,1
DA:95,1
DA:96,1
DA:97,1
DA:98,1
DA:100,1
DA:101,1
DA:102,1
DA:103,0
DA:104,1
DA:105,1
DA:106,0
DA:110,18
DA:111,18
DA:119,1
DA:120,1
DA:121,1
DA:125,1
DA:126,1
DA:130,1
DA:131,1
DA:133,1
DA:135,1
DA:136,1
DA:137,1
DA:138,0
DA:140,0
DA:141,0
DA:145,1
DA:146,1
DA:150,6
DA:151,6
DA:152,5
DA:153,1
DA:155,6
BRF:0
BRH:0
LF:87
LH:77
end_of_record
SF:/home/matthew/develop/personal/karva/crates/karva_core/src/diagnostic/reporter.rs
FN:42,_RNvMs0_NtNtCs4RrqI5pJN37_10karva_core10diagnostic8reporterNtB5_16TestCaseReporter3new
FN:27,_RNvXNtNtCs4RrqI5pJN37_10karva_core10diagnostic8reporterNtB2_13DummyReporterNtB2_8Reporter14log_test_count
FN:25,_RNvXNtNtCs4RrqI5pJN37_10karva_core10diagnostic8reporterNtB2_13DummyReporterNtB2_8Reporter23report_test_case_result
FN:69,_RNvXs1_NtNtCs4RrqI5pJN37_10karva_core10diagnostic8reporterNtB5_16TestCaseReporterNtB5_8Reporter14log_test_count
FN:48,_RNvXs1_NtNtCs4RrqI5pJN37_10karva_core10diagnostic8reporterNtB5_16TestCaseReporterNtB5_8Reporter23report_test_case_result
FN:36,_RNvXs_NtNtCs4RrqI5pJN37_10karva_core10diagnostic8reporterNtB4_16TestCaseReporterNtNtCs3vi8RLxhvdw_4core7default7Default7default
FN:42,_RNvMs0_NtNtCs1eKvc9ZrgUW_10karva_core10diagnostic8reporterNtB5_16TestCaseReporter3new
FN:69,_RNvXs1_NtNtCs1eKvc9ZrgUW_10karva_core10diagnostic8reporterNtB5_16TestCaseReporterNtB5_8Reporter14log_test_count
FN:48,_RNvXs1_NtNtCs1eKvc9ZrgUW_10karva_core10diagnostic8reporterNtB5_16TestCaseReporterNtB5_8Reporter23report_test_case_result
FN:36,_RNvXs_NtNtCs1eKvc9ZrgUW_10karva_core10diagnostic8reporterNtB4_16TestCaseReporterNtNtCs3vi8RLxhvdw_4core7default7Default7default
FN:27,_RNvXNtNtCs1eKvc9ZrgUW_10karva_core10diagnostic8reporterNtB2_13DummyReporterNtB2_8Reporter14log_test_count
FN:25,_RNvXNtNtCs1eKvc9ZrgUW_10karva_core10diagnostic8reporterNtB2_13DummyReporterNtB2_8Reporter23report_test_case_result
FNDA:0,_RNvMs0_NtNtCs4RrqI5pJN37_10karva_core10diagnostic8reporterNtB5_16TestCaseReporter3new
FNDA:155,_RNvXNtNtCs4RrqI5pJN37_10karva_core10diagnostic8reporterNtB2_13DummyReporterNtB2_8Reporter14log_test_count
FNDA:271,_RNvXNtNtCs4RrqI5pJN37_10karva_core10diagnostic8reporterNtB2_13DummyReporterNtB2_8Reporter23report_test_case_result
FNDA:0,_RNvXs1_NtNtCs4RrqI5pJN37_10karva_core10diagnostic8reporterNtB5_16TestCaseReporterNtB5_8Reporter14log_test_count
FNDA:0,_RNvXs1_NtNtCs4RrqI5pJN37_10karva_core10diagnostic8reporterNtB5_16TestCaseReporterNtB5_8Reporter23report_test_case_result
FNDA:0,_RNvXs_NtNtCs4RrqI5pJN37_10karva_core10diagnostic8reporterNtB4_16TestCaseReporterNtNtCs3vi8RLxhvdw_4core7default7Default7default
FNDA:0,_RNvMs0_NtNtCs1eKvc9ZrgUW_10karva_core10diagnostic8reporterNtB5_16TestCaseReporter3new
FNDA:0,_RNvXs1_NtNtCs1eKvc9ZrgUW_10karva_core10diagnostic8reporterNtB5_16TestCaseReporterNtB5_8Reporter14log_test_count
FNDA:0,_RNvXs1_NtNtCs1eKvc9ZrgUW_10karva_core10diagnostic8reporterNtB5_16TestCaseReporterNtB5_8Reporter23report_test_case_result
FNDA:0,_RNvXs_NtNtCs1eKvc9ZrgUW_10karva_core10diagnostic8reporterNtB4_16TestCaseReporterNtNtCs3vi8RLxhvdw_4core7default7Default7default
FNDA:2,_RNvXNtNtCs1eKvc9ZrgUW_10karva_core10diagnostic8reporterNtB2_13DummyReporterNtB2_8Reporter14log_test_count
FNDA:2,_RNvXNtNtCs1eKvc9ZrgUW_10karva_core10diagnostic8reporterNtB2_13DummyReporterNtB2_8Reporter23report_test_case_result
FNF:6
FNH:2
DA:25,273
DA:27,157
DA:36,0
DA:37,0
DA:38,0
DA:42,0
DA:43,0
DA:44,0
DA:48,0
DA:49,0
DA:51,0
DA:53,0
DA:54,0
DA:55,0
DA:56,0
DA:57,0
DA:58,0
DA:59,0
DA:61,0
DA:66,0
DA:67,0
DA:69,0
DA:70,0
DA:71,0
DA:72,0
DA:73,0
DA:74,0
DA:76,0
DA:78,0
DA:79,0
BRF:0
BRH:0
LF:30
LH:2
end_of_record
SF:/home/matthew/develop/personal/karva/crates/karva_core/src/diagnostic/traceback.rs
FN:22,_RNCNvMNtNtCs4RrqI5pJN37_10karva_core10diagnostic9tracebackNtB4_9Traceback3new0B8_
FN:11,_RNvMNtNtCs4RrqI5pJN37_10karva_core10diagnostic9tracebackNtB2_9Traceback3new
FN:37,_RNvNtNtCs4RrqI5pJN37_10karva_core10diagnostic9traceback12get_location
FN:62,_RNvNtNtCs4RrqI5pJN37_10karva_core10diagnostic9traceback16filter_traceback
FN:88,_RNvNtNtNtNtCs1eKvc9ZrgUW_10karva_core10diagnostic9traceback5tests22filter_traceback_testss_21test_filter_traceback
FN:104,_RNvNtNtNtNtCs1eKvc9ZrgUW_10karva_core10diagnostic9traceback5tests22filter_traceback_testss_27test_filter_traceback_empty
FN:11,_RNvMNtNtCs1eKvc9ZrgUW_10karva_core10diagnostic9tracebackNtB2_9Traceback3new
FN:37,_RNvNtNtCs1eKvc9ZrgUW_10karva_core10diagnostic9traceback12get_location
FN:62,_RNvNtNtCs1eKvc9ZrgUW_10karva_core10diagnostic9traceback16filter_traceback
FN:22,_RNCNvMNtNtCs1eKvc9ZrgUW_10karva_core10diagnostic9tracebackNtB4_9Traceback3new0B8_
FN:125,_RNvNtNtNtNtCs1eKvc9ZrgUW_10karva_core10diagnostic9traceback5tests18get_location_testss_27test_get_location_with_path
FN:135,_RNvNtNtNtNtCs1eKvc9ZrgUW_10karva_core10diagnostic9traceback5tests18get_location_testss_29test_get_location_multi_frame
FN:155,_RNvNtNtNtNtCs1eKvc9ZrgUW_10karva_core10diagnostic9traceback5tests18get_location_testss_29test_get_location_single_line
FN:162,_RNvNtNtNtNtCs1eKvc9ZrgUW_10karva_core10diagnostic9traceback5tests18get_location_testss_32test_get_location_no_file_prefix
FN:148,_RNvNtNtNtNtCs1eKvc9ZrgUW_10karva_core10diagnostic9traceback5tests18get_location_testss_33test_get_location_empty_traceback
FN:180,_RNvNtNtNtNtCs1eKvc9ZrgUW_10karva_core10diagnostic9traceback5tests18get_location_testss_33test_get_location_malformed_quote
FN:115,_RNvNtNtNtNtCs1eKvc9ZrgUW_10karva_core10diagnostic9traceback5tests18get_location_testss_33test_get_location_valid_traceback
FN:189,_RNvNtNtNtNtCs1eKvc9ZrgUW_10karva_core10diagnostic9traceback5tests18get_location_testss_35test_get_location_large_line_number
FN:171,_RNvNtNtNtNtCs1eKvc9ZrgUW_10karva_core10diagnostic9traceback5tests18get_location_testss_37test_get_location_missing_line_number
FNDA:10,_RNCNvMNtNtCs4RrqI5pJN37_10karva_core10diagnostic9tracebackNtB4_9Traceback3new0B8_
FNDA:5,_RNvMNtNtCs4RrqI5pJN37_10karva_core10diagnostic9tracebackNtB2_9Traceback3new
FNDA:5,_RNvNtNtCs4RrqI5pJN37_10karva_core10diagnostic9traceback12get_location
FNDA:5,_RNvNtNtCs4RrqI5pJN37_10karva_core10diagnostic9traceback16filter_traceback
FNDA:1,_RNvNtNtNtNtCs1eKvc9ZrgUW_10karva_core10diagnostic9traceback5tests22filter_traceback_testss_21test_filter_traceback
FNDA:1,_RNvNtNtNtNtCs1eKvc9ZrgUW_10karva_core10diagnostic9traceback5tests22filter_traceback_testss_27test_filter_traceback_empty
FNDA:0,_RNvMNtNtCs1eKvc9ZrgUW_10karva_core10diagnostic9tracebackNtB2_9Traceback3new
FNDA:9,_RNvNtNtCs1eKvc9ZrgUW_10karva_core10diagnostic9traceback12get_location
FNDA:2,_RNvNtNtCs1eKvc9ZrgUW_10karva_core10diagnostic9traceback16filter_traceback
FNDA:0,_RNCNvMNtNtCs1eKvc9ZrgUW_10karva_core10diagnostic9tracebackNtB4_9Traceback3new0B8_
FNDA:1,_RNvNtNtNtNtCs1eKvc9ZrgUW_10karva_core10diagnostic9traceback5tests18get_location_testss_27test_get_location_with_path
FNDA:1,_RNvNtNtNtNtCs1eKvc9ZrgUW_10karva_core10diagnostic9traceback5tests18get_location_testss_29test_get_location_multi_frame
FNDA:1,_RNvNtNtNtNtCs1eKvc9ZrgUW_10karva_core10diagnostic9traceback5tests18get_location_testss_29test_get_location_single_line
FNDA:1,_RNvNtNtNtNtCs1eKvc9ZrgUW_10karva_core10diagnostic9traceback5tests18get_location_testss_32test_get_location_no_file_prefix
FNDA:1,_RNvNtNtNtNtCs1eKvc9ZrgUW_10karva_core10diagnostic9traceback5tests18get_location_testss_33test_get_location_empty_traceback
FNDA:1,_RNvNtNtNtNtCs1eKvc9ZrgUW_10karva_core10diagnostic9traceback5tests18get_location_testss_33test_get_location_malformed_quote
FNDA:1,_RNvNtNtNtNtCs1eKvc9ZrgUW_10karva_core10diagnostic9traceback5tests18get_location_testss_33test_get_location_valid_traceback
FNDA:1,_RNvNtNtNtNtCs1eKvc9ZrgUW_10karva_core10diagnostic9traceback5tests18get_location_testss_35test_get_location_large_line_number
FNDA:1,_RNvNtNtNtNtCs1eKvc9ZrgUW_10karva_core10diagnostic9traceback5tests18get_location_testss_37test_get_location_missing_line_number
FNF:15
FNH:15
DA:11,5
DA:12,5
DA:13,5
DA:14,5
DA:15,0
DA:16,0
DA:17,0
DA:18,0
DA:19,5
DA:20,5
DA:21,5
DA:22,10
DA:23,5
DA:24,5
DA:25,5
DA:26,5
DA:27,5
DA:29,0
DA:30,0
DA:31,0
DA:32,0
DA:34,5
DA:37,14
DA:38,14
DA:41,32
DA:42,32
DA:43,32
DA:44,11
DA:45,10
DA:46,10
DA:47,10
DA:48,9
DA:49,9
DA:50,9
DA:51,9
DA:52,0
DA:53,1
DA:54,1
DA:55,21
DA:58,5
DA:59,14
DA:62,7
DA:63,7
DA:64,7
DA:66,19
DA:67,19
DA:68,6
DA:69,13
DA:70,13
DA:71,13
DA:73,7
DA:75,7
DA:77,7
DA:78,7
DA:88,1
DA:89,1
DA:90,1
DA:91,1
DA:92,1
DA:93,1
DA:94,1
DA:95,1
DA:101,1
DA:104,1
DA:105,1
DA:106,1
DA:107,1
DA:108,1
DA:115,1
DA:116,1
DA:117,1
DA:118,1
DA:119,1
DA:120,1
DA:121,1
DA:122,1
DA:125,1
DA:126,1
DA:127,1
DA:128,1
DA:129,1
DA:130,1
DA:131,1
DA:132,1
DA:135,1
DA:136,1
DA:137,1
DA:138,1
DA:139,1
DA:140,1
DA:141,1
DA:143,1
DA:144,1
DA:145,1
DA:148,1
DA:149,1
DA:150,1
DA:151,1
DA:152,1
DA:155,1
DA:156,1
DA:157,1
DA:158,1
DA:159,1
DA:162,1
DA:163,1
DA:164,1
DA:165,1
DA:166,1
DA:167,1
DA:168,1
DA:171,1
DA:172,1
DA:173,1
DA:174,1
DA:175,1
DA:176,1
DA:177,1
DA:180,1
DA:181,1
DA:182,1
DA:183,1
DA:184,1
DA:185,1
DA:186,1
DA:189,1
DA:190,1
DA:191,1
DA:192,1
DA:193,1
DA:194,1
DA:195,1
DA:196,1
BRF:0
BRH:0
LF:134
LH:125
end_of_record
SF:/home/matthew/develop/personal/karva/crates/karva_core/src/discovery/discoverer.rs
FN:171,_RNvMNtNtCs4RrqI5pJN37_10karva_core9discovery10discovererNtB2_18StandardDiscoverer18discover_directory
FN:96,_RNvMNtNtCs4RrqI5pJN37_10karva_core9discovery10discovererNtB2_18StandardDiscoverer18discover_test_file
FN:243,_RNvMNtNtCs4RrqI5pJN37_10karva_core9discovery10discovererNtB2_18StandardDiscoverer23create_directory_walker
FN:118,_RNvMNtNtCs4RrqI5pJN37_10karva_core9discovery10discovererNtB2_18StandardDiscoverer33add_parent_configuration_packages
FN:18,_RNvMNtNtCs4RrqI5pJN37_10karva_core9discovery10discovererNtB2_18StandardDiscoverer3new
FN:22,_RNvMNtNtCs4RrqI5pJN37_10karva_core9discovery10discovererNtB2_18StandardDiscoverer8discover
FN:272,_RNvMs_NtNtCs4RrqI5pJN37_10karva_core9discovery10discovererNtB4_13DiscoveryMode21is_configuration_only
FN:257,_RNCNvMNtNtCs4RrqI5pJN37_10karva_core9discovery10discovererNtB4_18StandardDiscoverer23create_directory_walker0B8_
FN:287,_RNvNtNtNtCs1eKvc9ZrgUW_10karva_core9discovery10discoverer5testss_19test_discover_files
FN:876,_RNvNtNtNtCs1eKvc9ZrgUW_10karva_core9discovery10discoverer5testss_28test_discover_pytest_fixture
FN:910,_RNvNtNtNtCs1eKvc9ZrgUW_10karva_core9discovery10discoverer5testss_31test_discover_generator_fixture
FN:588,_RNvNtNtNtCs1eKvc9ZrgUW_10karva_core9discovery10discoverer5testss_33test_discover_files_with_cwd_path
FN:803,_RNvNtNtNtCs1eKvc9ZrgUW_10karva_core9discovery10discoverer5testss_33test_discover_multiple_test_paths
FN:304,_RNvNtNtNtCs1eKvc9ZrgUW_10karva_core9discovery10discoverer5testss_34test_discover_files_with_directory
FN:328,_RNvNtNtNtCs1eKvc9ZrgUW_10karva_core9discovery10discoverer5testss_34test_discover_files_with_gitignore
FN:608,_RNvNtNtNtCs1eKvc9ZrgUW_10karva_core9discovery10discoverer5testss_38test_discover_function_inside_function
FN:958,_RNvNtNtNtCs1eKvc9ZrgUW_10karva_core9discovery10discoverer5testss_38test_discovery_same_module_given_twice
FN:418,_RNvNtNtNtCs1eKvc9ZrgUW_10karva_core9discovery10discoverer5testss_39test_discover_files_with_invalid_python
FN:461,_RNvNtNtNtCs1eKvc9ZrgUW_10karva_core9discovery10discoverer5testss_39test_discover_files_with_multiple_paths
FN:626,_RNvNtNtNtCs1eKvc9ZrgUW_10karva_core9discovery10discoverer5testss_42test_discover_fixture_in_same_file_in_root
FN:430,_RNvNtNtNtCs1eKvc9ZrgUW_10karva_core9discovery10discoverer5testss_43test_discover_files_with_custom_test_prefix
FN:349,_RNvNtNtNtCs1eKvc9ZrgUW_10karva_core9discovery10discoverer5testss_43test_discover_files_with_nested_directories
FN:406,_RNvNtNtNtCs1eKvc9ZrgUW_10karva_core9discovery10discoverer5testss_46test_discover_files_with_non_existent_function
FN:655,_RNvNtNtNtCs1eKvc9ZrgUW_10karva_core9discovery10discoverer5testss_46test_discover_fixture_in_same_file_in_test_dir
FN:542,_RNvNtNtNtCs1eKvc9ZrgUW_10karva_core9discovery10discoverer5testss_47test_discover_files_with_conftest_explicit_path
FN:683,_RNvNtNtNtCs1eKvc9ZrgUW_10karva_core9discovery10discoverer5testss_47test_discover_fixture_in_root_tests_in_test_dir
FN:381,_RNvNtNtNtCs1eKvc9ZrgUW_10karva_core9discovery10discoverer5testss_48test_discover_files_with_multiple_test_functions
FN:719,_RNvNtNtNtCs1eKvc9ZrgUW_10karva_core9discovery10discoverer5testss_49test_discover_fixture_in_root_tests_in_nested_dir
FN:516,_RNvNtNtNtCs1eKvc9ZrgUW_10karva_core9discovery10discoverer5testss_52test_tests_same_name_different_module_are_discovered
FN:836,_RNvNtNtNtCs1eKvc9ZrgUW_10karva_core9discovery10discoverer5testss_53test_discover_doubly_nested_with_conftest_middle_path
FN:494,_RNvNtNtNtCs1eKvc9ZrgUW_10karva_core9discovery10discoverer5testss_59test_paths_shadowed_by_other_paths_are_not_discovered_twice
FN:565,_RNvNtNtNtCs1eKvc9ZrgUW_10karva_core9discovery10discoverer5testss_69test_discover_files_with_conftest_parent_path_conftest_not_discovered
FN:257,_RNCNvMNtNtCs1eKvc9ZrgUW_10karva_core9discovery10discovererNtB4_18StandardDiscoverer23create_directory_walker0B8_
FN:292,_RNCNvNtNtNtCs1eKvc9ZrgUW_10karva_core9discovery10discoverer5testss_19test_discover_files0B9_
FN:895,_RNCNvNtNtNtCs1eKvc9ZrgUW_10karva_core9discovery10discoverer5testss_28test_discover_pytest_fixture0B9_
FN:929,_RNCNvNtNtNtCs1eKvc9ZrgUW_10karva_core9discovery10discoverer5testss_31test_discover_generator_fixture0B9_
FN:596,_RNCNvNtNtNtCs1eKvc9ZrgUW_10karva_core9discovery10discoverer5testss_33test_discover_files_with_cwd_path0B9_
FN:817,_RNCNvNtNtNtCs1eKvc9ZrgUW_10karva_core9discovery10discoverer5testss_33test_discover_multiple_test_paths0B9_
FN:315,_RNCNvNtNtNtCs1eKvc9ZrgUW_10karva_core9discovery10discoverer5testss_34test_discover_files_with_directory0B9_
FN:337,_RNCNvNtNtNtCs1eKvc9ZrgUW_10karva_core9discovery10discoverer5testss_34test_discover_files_with_gitignore0B9_
FN:620,_RNCNvNtNtNtCs1eKvc9ZrgUW_10karva_core9discovery10discoverer5testss_38test_discover_function_inside_function0B9_
FN:967,_RNCNvNtNtNtCs1eKvc9ZrgUW_10karva_core9discovery10discoverer5testss_38test_discovery_same_module_given_twice0B9_
FN:423,_RNCNvNtNtNtCs1eKvc9ZrgUW_10karva_core9discovery10discoverer5testss_39test_discover_files_with_invalid_python0B9_
FN:475,_RNCNvNtNtNtCs1eKvc9ZrgUW_10karva_core9discovery10discoverer5testss_39test_discover_files_with_multiple_paths0B9_
FN:643,_RNCNvNtNtNtCs1eKvc9ZrgUW_10karva_core9discovery10discoverer5testss_42test_discover_fixture_in_same_file_in_root0B9_
FN:449,_RNCNvNtNtNtCs1eKvc9ZrgUW_10karva_core9discovery10discoverer5testss_43test_discover_files_with_custom_test_prefix0B9_
FN:361,_RNCNvNtNtNtCs1eKvc9ZrgUW_10karva_core9discovery10discoverer5testss_43test_discover_files_with_nested_directories0B9_
FN:411,_RNCNvNtNtNtCs1eKvc9ZrgUW_10karva_core9discovery10discoverer5testss_46test_discover_files_with_non_existent_function0B9_
FN:671,_RNCNvNtNtNtCs1eKvc9ZrgUW_10karva_core9discovery10discoverer5testss_46test_discover_fixture_in_same_file_in_test_dir0B9_
FN:553,_RNCNvNtNtNtCs1eKvc9ZrgUW_10karva_core9discovery10discoverer5testss_47test_discover_files_with_conftest_explicit_path0B9_
FN:703,_RNCNvNtNtNtCs1eKvc9ZrgUW_10karva_core9discovery10discoverer5testss_47test_discover_fixture_in_root_tests_in_test_dir0B9_
FN:394,_RNCNvNtNtNtCs1eKvc9ZrgUW_10karva_core9discovery10discoverer5testss_48test_discover_files_with_multiple_test_functions0B9_
FN:777,_RNCNvNtNtNtCs1eKvc9ZrgUW_10karva_core9discovery10discoverer5testss_49test_discover_fixture_in_root_tests_in_nested_dir0B9_
FN:528,_RNCNvNtNtNtCs1eKvc9ZrgUW_10karva_core9discovery10discoverer5testss_52test_tests_same_name_different_module_are_discovered0B9_
FN:858,_RNCNvNtNtNtCs1eKvc9ZrgUW_10karva_core9discovery10discoverer5testss_53test_discover_doubly_nested_with_conftest_middle_path0B9_
FN:505,_RNCNvNtNtNtCs1eKvc9ZrgUW_10karva_core9discovery10discoverer5testss_59test_paths_shadowed_by_other_paths_are_not_discovered_twice0B9_
FN:576,_RNCNvNtNtNtCs1eKvc9ZrgUW_10karva_core9discovery10discoverer5testss_69test_discover_files_with_conftest_parent_path_conftest_not_discovered0B9_
FN:171,_RNvMNtNtCs1eKvc9ZrgUW_10karva_core9discovery10discovererNtB2_18StandardDiscoverer18discover_directory
FN:96,_RNvMNtNtCs1eKvc9ZrgUW_10karva_core9discovery10discovererNtB2_18StandardDiscoverer18discover_test_file
FN:243,_RNvMNtNtCs1eKvc9ZrgUW_10karva_core9discovery10discovererNtB2_18StandardDiscoverer23create_directory_walker
FN:118,_RNvMNtNtCs1eKvc9ZrgUW_10karva_core9discovery10discovererNtB2_18StandardDiscoverer33add_parent_configuration_packages
FN:18,_RNvMNtNtCs1eKvc9ZrgUW_10karva_core9discovery10discovererNtB2_18StandardDiscoverer3new
FN:22,_RNvMNtNtCs1eKvc9ZrgUW_10karva_core9discovery10discovererNtB2_18StandardDiscoverer8discover
FN:272,_RNvMs_NtNtCs1eKvc9ZrgUW_10karva_core9discovery10discovererNtB4_13DiscoveryMode21is_configuration_only
FNDA:462,_RNvMNtNtCs4RrqI5pJN37_10karva_core9discovery10discovererNtB2_18StandardDiscoverer18discover_directory
FNDA:179,_RNvMNtNtCs4RrqI5pJN37_10karva_core9discovery10discovererNtB2_18StandardDiscoverer18discover_test_file
FNDA:462,_RNvMNtNtCs4RrqI5pJN37_10karva_core9discovery10discovererNtB2_18StandardDiscoverer23create_directory_walker
FNDA:157,_RNvMNtNtCs4RrqI5pJN37_10karva_core9discovery10discovererNtB2_18StandardDiscoverer33add_parent_configuration_packages
FNDA:155,_RNvMNtNtCs4RrqI5pJN37_10karva_core9discovery10discovererNtB2_18StandardDiscoverer3new
FNDA:155,_RNvMNtNtCs4RrqI5pJN37_10karva_core9discovery10discovererNtB2_18StandardDiscoverer8discover
FNDA:646,_RNvMs_NtNtCs4RrqI5pJN37_10karva_core9discovery10discovererNtB4_13DiscoveryMode21is_configuration_only
FNDA:485,_RNCNvMNtNtCs4RrqI5pJN37_10karva_core9discovery10discovererNtB4_18StandardDiscoverer23create_directory_walker0B8_
FNDA:1,_RNvNtNtNtCs1eKvc9ZrgUW_10karva_core9discovery10discoverer5testss_19test_discover_files
FNDA:1,_RNvNtNtNtCs1eKvc9ZrgUW_10karva_core9discovery10discoverer5testss_28test_discover_pytest_fixture
FNDA:1,_RNvNtNtNtCs1eKvc9ZrgUW_10karva_core9discovery10discoverer5testss_31test_discover_generator_fixture
FNDA:1,_RNvNtNtNtCs1eKvc9ZrgUW_10karva_core9discovery10discoverer5testss_33test_discover_files_with_cwd_path
FNDA:1,_RNvNtNtNtCs1eKvc9ZrgUW_10karva_core9discovery10discoverer5testss_33test_discover_multiple_test_paths
FNDA:1,_RNvNtNtNtCs1eKvc9ZrgUW_10karva_core9discovery10discoverer5testss_34test_discover_files_with_directory
FNDA:1,_RNvNtNtNtCs1eKvc9ZrgUW_10karva_core9discovery10discoverer5testss_34test_discover_files_with_gitignore
FNDA:1,_RNvNtNtNtCs1eKvc9ZrgUW_10karva_core9discovery10discoverer5testss_38test_discover_function_inside_function
FNDA:1,_RNvNtNtNtCs1eKvc9ZrgUW_10karva_core9discovery10discoverer5testss_38test_discovery_same_module_given_twice
FNDA:1,_RNvNtNtNtCs1eKvc9ZrgUW_10karva_core9discovery10discoverer5testss_39test_discover_files_with_invalid_python
FNDA:1,_RNvNtNtNtCs1eKvc9ZrgUW_10karva_core9discovery10discoverer5testss_39test_discover_files_with_multiple_paths
FNDA:1,_RNvNtNtNtCs1eKvc9ZrgUW_10karva_core9discovery10discoverer5testss_42test_discover_fixture_in_same_file_in_root
FNDA:1,_RNvNtNtNtCs1eKvc9ZrgUW_10karva_core9discovery10discoverer5testss_43test_discover_files_with_custom_test_prefix
FNDA:1,_RNvNtNtNtCs1eKvc9ZrgUW_10karva_core9discovery10discoverer5testss_43test_discover_files_with_nested_directories
FNDA:1,_RNvNtNtNtCs1eKvc9ZrgUW_10karva_core9discovery10discoverer5testss_46test_discover_files_with_non_existent_function
FNDA:1,_RNvNtNtNtCs1eKvc9ZrgUW_10karva_core9discovery10discoverer5testss_46test_discover_fixture_in_same_file_in_test_dir
FNDA:1,_RNvNtNtNtCs1eKvc9ZrgUW_10karva_core9discovery10discoverer5testss_47test_discover_files_with_conftest_explicit_path
FNDA:1,_RNvNtNtNtCs1eKvc9ZrgUW_10karva_core9discovery10discoverer5testss_47test_discover_fixture_in_root_tests_in_test_dir
FNDA:1,_RNvNtNtNtCs1eKvc9ZrgUW_10karva_core9discovery10discoverer5testss_48test_discover_files_with_multiple_test_functions
FNDA:1,_RNvNtNtNtCs1eKvc9ZrgUW_10karva_core9discovery10discoverer5testss_49test_discover_fixture_in_root_tests_in_nested_dir
FNDA:1,_RNvNtNtNtCs1eKvc9ZrgUW_10karva_core9discovery10discoverer5testss_52test_tests_same_name_different_module_are_discovered
FNDA:1,_RNvNtNtNtCs1eKvc9ZrgUW_10karva_core9discovery10discoverer5testss_53test_discover_doubly_nested_with_conftest_middle_path
FNDA:1,_RNvNtNtNtCs1eKvc9ZrgUW_10karva_core9discovery10discoverer5testss_59test_paths_shadowed_by_other_paths_are_not_discovered_twice
FNDA:1,_RNvNtNtNtCs1eKvc9ZrgUW_10karva_core9discovery10discoverer5testss_69test_discover_files_with_conftest_parent_path_conftest_not_discovered
FNDA:202,_RNCNvMNtNtCs1eKvc9ZrgUW_10karva_core9discovery10discovererNtB4_18StandardDiscoverer23create_directory_walker0B8_
FNDA:1,_RNCNvNtNtNtCs1eKvc9ZrgUW_10karva_core9discovery10discoverer5testss_19test_discover_files0B9_
FNDA:1,_RNCNvNtNtNtCs1eKvc9ZrgUW_10karva_core9discovery10discoverer5testss_28test_discover_pytest_fixture0B9_
FNDA:1,_RNCNvNtNtNtCs1eKvc9ZrgUW_10karva_core9discovery10discoverer5testss_31test_discover_generator_fixture0B9_
FNDA:1,_RNCNvNtNtNtCs1eKvc9ZrgUW_10karva_core9discovery10discoverer5testss_33test_discover_files_with_cwd_path0B9_
FNDA:1,_RNCNvNtNtNtCs1eKvc9ZrgUW_10karva_core9discovery10discoverer5testss_33test_discover_multiple_test_paths0B9_
FNDA:1,_RNCNvNtNtNtCs1eKvc9ZrgUW_10karva_core9discovery10discoverer5testss_34test_discover_files_with_directory0B9_
FNDA:1,_RNCNvNtNtNtCs1eKvc9ZrgUW_10karva_core9discovery10discoverer5testss_34test_discover_files_with_gitignore0B9_
FNDA:1,_RNCNvNtNtNtCs1eKvc9ZrgUW_10karva_core9discovery10discoverer5testss_38test_discover_function_inside_function0B9_
FNDA:1,_RNCNvNtNtNtCs1eKvc9ZrgUW_10karva_core9discovery10discoverer5testss_38test_discovery_same_module_given_twice0B9_
FNDA:1,_RNCNvNtNtNtCs1eKvc9ZrgUW_10karva_core9discovery10discoverer5testss_39test_discover_files_with_invalid_python0B9_
FNDA:1,_RNCNvNtNtNtCs1eKvc9ZrgUW_10karva_core9discovery10discoverer5testss_39test_discover_files_with_multiple_paths0B9_
FNDA:2,_RNCNvNtNtNtCs1eKvc9ZrgUW_10karva_core9discovery10discoverer5testss_42test_discover_fixture_in_same_file_in_root0B9_
FNDA:1,_RNCNvNtNtNtCs1eKvc9ZrgUW_10karva_core9discovery10discoverer5testss_43test_discover_files_with_custom_test_prefix0B9_
FNDA:1,_RNCNvNtNtNtCs1eKvc9ZrgUW_10karva_core9discovery10discoverer5testss_43test_discover_files_with_nested_directories0B9_
FNDA:1,_RNCNvNtNtNtCs1eKvc9ZrgUW_10karva_core9discovery10discoverer5testss_46test_discover_files_with_non_existent_function0B9_
FNDA:3,_RNCNvNtNtNtCs1eKvc9ZrgUW_10karva_core9discovery10discoverer5testss_46test_discover_fixture_in_same_file_in_test_dir0B9_
FNDA:1,_RNCNvNtNtNtCs1eKvc9ZrgUW_10karva_core9discovery10discoverer5testss_47test_discover_files_with_conftest_explicit_path0B9_
FNDA:3,_RNCNvNtNtNtCs1eKvc9ZrgUW_10karva_core9discovery10discoverer5testss_47test_discover_fixture_in_root_tests_in_test_dir0B9_
FNDA:1,_RNCNvNtNtNtCs1eKvc9ZrgUW_10karva_core9discovery10discoverer5testss_48test_discover_files_with_multiple_test_functions0B9_
FNDA:5,_RNCNvNtNtNtCs1eKvc9ZrgUW_10karva_core9discovery10discoverer5testss_49test_discover_fixture_in_root_tests_in_nested_dir0B9_
FNDA:1,_RNCNvNtNtNtCs1eKvc9ZrgUW_10karva_core9discovery10discoverer5testss_52test_tests_same_name_different_module_are_discovered0B9_
FNDA:1,_RNCNvNtNtNtCs1eKvc9ZrgUW_10karva_core9discovery10discoverer5testss_53test_discover_doubly_nested_with_conftest_middle_path0B9_
FNDA:1,_RNCNvNtNtNtCs1eKvc9ZrgUW_10karva_core9discovery10discoverer5testss_59test_paths_shadowed_by_other_paths_are_not_discovered_twice0B9_
FNDA:1,_RNCNvNtNtNtCs1eKvc9ZrgUW_10karva_core9discovery10discoverer5testss_69test_discover_files_with_conftest_parent_path_conftest_not_discovered0B9_
FNDA:146,_RNvMNtNtCs1eKvc9ZrgUW_10karva_core9discovery10discovererNtB2_18StandardDiscoverer18discover_directory
FNDA:126,_RNvMNtNtCs1eKvc9ZrgUW_10karva_core9discovery10discovererNtB2_18StandardDiscoverer18discover_test_file
FNDA:146,_RNvMNtNtCs1eKvc9ZrgUW_10karva_core9discovery10discovererNtB2_18StandardDiscoverer23create_directory_walker
FNDA:59,_RNvMNtNtCs1eKvc9ZrgUW_10karva_core9discovery10discovererNtB2_18StandardDiscoverer33add_parent_configuration_packages
FNDA:53,_RNvMNtNtCs1eKvc9ZrgUW_10karva_core9discovery10discovererNtB2_18StandardDiscoverer3new
FNDA:53,_RNvMNtNtCs1eKvc9ZrgUW_10karva_core9discovery10discovererNtB2_18StandardDiscoverer8discover
FNDA:277,_RNvMs_NtNtCs1eKvc9ZrgUW_10karva_core9discovery10discovererNtB4_13DiscoveryMode21is_configuration_only
FNF:56
FNH:56
DA:18,208
DA:19,208
DA:20,208
DA:22,208
DA:23,208
DA:25,208
DA:27,208
DA:29,208
DA:30,0
DA:31,208
DA:33,208
DA:35,217
DA:36,217
DA:37,216
DA:38,216
DA:39,20
DA:40,20
DA:41,20
DA:43,0
DA:46,20
DA:48,20
DA:50,193
DA:51,193
DA:52,193
DA:53,193
DA:54,193
DA:55,193
DA:56,193
DA:57,193
DA:59,3
DA:60,3
DA:62,3
DA:63,3
DA:65,0
DA:68,3
DA:70,3
DA:71,3
DA:72,3
DA:74,3
DA:78,216
DA:79,216
DA:80,216
DA:81,216
DA:84,1
DA:85,1
DA:86,1
DA:90,208
DA:92,208
DA:93,208
DA:96,305
DA:97,305
DA:98,305
DA:99,305
DA:100,305
DA:101,305
DA:102,305
DA:104,305
DA:106,305
DA:108,305
DA:109,226
DA:110,226
DA:112,305
DA:114,305
DA:115,305
DA:118,216
DA:119,216
DA:120,216
DA:121,216
DA:122,216
DA:123,216
DA:124,216
DA:125,193
DA:127,23
DA:128,23
DA:129,0
DA:133,216
DA:136,271
DA:137,271
DA:138,19
DA:140,19
DA:141,19
DA:143,0
DA:146,19
DA:148,19
DA:150,19
DA:151,252
DA:153,271
DA:154,216
DA:155,55
DA:157,55
DA:158,55
DA:159,0
DA:163,216
DA:164,216
DA:171,608
DA:172,608
DA:173,608
DA:174,608
DA:175,608
DA:176,608
DA:177,608
DA:179,608
DA:181,608
DA:183,1894
DA:184,1286
DA:185,0
DA:187,1286
DA:188,1286
DA:191,1286
DA:192,608
DA:193,678
DA:195,678
DA:196,678
DA:197,415
DA:198,0
DA:199,415
DA:201,415
DA:202,415
DA:204,415
DA:205,415
DA:207,263
DA:209,203
DA:210,0
DA:211,203
DA:213,203
DA:214,203
DA:216,0
DA:219,203
DA:220,203
DA:223,60
DA:224,60
DA:225,60
DA:226,60
DA:227,60
DA:228,0
DA:231,60
DA:232,60
DA:235,0
DA:239,608
DA:240,608
DA:243,608
DA:244,608
DA:245,608
DA:246,608
DA:247,608
DA:248,608
DA:249,608
DA:250,608
DA:251,608
DA:252,608
DA:253,608
DA:254,608
DA:255,608
DA:256,608
DA:257,687
DA:258,687
DA:259,687
DA:260,687
DA:261,608
DA:262,608
DA:272,923
DA:273,923
DA:274,923
DA:287,1
DA:288,1
DA:290,1
DA:291,1
DA:292,1
DA:294,1
DA:295,1
DA:296,1
DA:297,1
DA:298,1
DA:299,1
DA:300,1
DA:301,1
DA:304,1
DA:305,1
DA:306,1
DA:307,1
DA:308,1
DA:309,1
DA:310,1
DA:311,1
DA:313,1
DA:314,1
DA:315,1
DA:317,1
DA:318,1
DA:319,1
DA:320,1
DA:321,1
DA:322,1
DA:323,1
DA:324,1
DA:325,1
DA:328,1
DA:329,1
DA:330,1
DA:331,1
DA:332,1
DA:333,1
DA:335,1
DA:336,1
DA:337,1
DA:339,1
DA:340,1
DA:341,1
DA:342,1
DA:343,1
DA:344,1
DA:345,1
DA:346,1
DA:349,1
DA:350,1
DA:351,1
DA:352,1
DA:353,1
DA:354,1
DA:355,1
DA:356,1
DA:357,1
DA:359,1
DA:360,1
DA:361,1
DA:363,1
DA:364,1
DA:365,1
DA:366,1
DA:367,1
DA:368,1
DA:369,1
DA:370,1
DA:371,1
DA:372,1
DA:373,1
DA:374,1
DA:375,1
DA:376,1
DA:377,1
DA:378,1
DA:381,1
DA:382,1
DA:383,1
DA:384,1
DA:385,1
DA:386,1
DA:387,1
DA:388,1
DA:389,1
DA:390,1
DA:392,1
DA:393,1
DA:394,1
DA:396,1
DA:397,1
DA:398,1
DA:399,1
DA:400,1
DA:401,1
DA:402,1
DA:403,1
DA:406,1
DA:407,1
DA:409,1
DA:410,1
DA:411,1
DA:413,1
DA:414,1
DA:415,1
DA:418,1
DA:419,1
DA:421,1
DA:422,1
DA:423,1
DA:425,1
DA:426,1
DA:427,1
DA:430,1
DA:431,1
DA:432,1
DA:433,1
DA:434,1
DA:435,1
DA:436,1
DA:437,1
DA:438,1
DA:440,1
DA:441,1
DA:442,1
DA:448,1
DA:449,1
DA:451,1
DA:452,1
DA:453,1
DA:454,1
DA:455,1
DA:456,1
DA:457,1
DA:458,1
DA:461,1
DA:462,1
DA:463,1
DA:464,1
DA:465,1
DA:466,1
DA:468,1
DA:469,1
DA:470,1
DA:471,1
DA:473,1
DA:474,1
DA:475,1
DA:477,1
DA:478,1
DA:479,1
DA:480,1
DA:481,1
DA:482,1
DA:483,1
DA:484,1
DA:485,1
DA:486,1
DA:487,1
DA:488,1
DA:489,1
DA:490,1
DA:491,1
DA:494,1
DA:495,1
DA:496,1
DA:497,1
DA:498,1
DA:500,1
DA:501,1
DA:503,1
DA:504,1
DA:505,1
DA:506,1
DA:507,1
DA:508,1
DA:509,1
DA:510,1
DA:511,1
DA:512,1
DA:513,1
DA:516,1
DA:517,1
DA:518,1
DA:519,1
DA:520,1
DA:522,1
DA:523,1
DA:524,1
DA:526,1
DA:527,1
DA:528,1
DA:529,1
DA:530,1
DA:531,1
DA:532,1
DA:533,1
DA:534,1
DA:535,1
DA:536,1
DA:537,1
DA:538,1
DA:539,1
DA:542,1
DA:543,1
DA:544,1
DA:545,1
DA:546,1
DA:548,1
DA:549,1
DA:551,1
DA:552,1
DA:553,1
DA:555,1
DA:556,1
DA:557,1
DA:558,1
DA:559,1
DA:560,1
DA:561,1
DA:562,1
DA:565,1
DA:566,1
DA:567,1
DA:568,1
DA:569,1
DA:571,1
DA:572,1
DA:574,1
DA:575,1
DA:576,1
DA:578,1
DA:579,1
DA:580,1
DA:581,1
DA:582,1
DA:583,1
DA:584,1
DA:585,1
DA:588,1
DA:589,1
DA:591,1
DA:592,1
DA:594,1
DA:595,1
DA:596,1
DA:598,1
DA:599,1
DA:600,1
DA:601,1
DA:602,1
DA:603,1
DA:604,1
DA:605,1
DA:608,1
DA:609,1
DA:610,1
DA:611,1
DA:612,1
DA:614,1
DA:615,1
DA:617,1
DA:618,1
DA:620,1
DA:622,1
DA:623,1
DA:626,1
DA:627,1
DA:628,1
DA:629,1
DA:630,1
DA:631,1
DA:632,1
DA:633,1
DA:634,1
DA:635,1
DA:636,1
DA:638,1
DA:639,1
DA:641,2
DA:642,2
DA:643,2
DA:645,2
DA:652,1
DA:655,1
DA:656,1
DA:657,1
DA:658,1
DA:659,1
DA:660,1
DA:661,1
DA:662,1
DA:663,1
DA:665,1
DA:666,1
DA:667,1
DA:669,3
DA:670,3
DA:671,3
DA:672,3
DA:680,1
DA:683,1
DA:684,1
DA:685,1
DA:686,1
DA:687,1
DA:688,1
DA:689,1
DA:690,1
DA:691,1
DA:692,1
DA:693,1
DA:694,1
DA:695,1
DA:697,1
DA:698,1
DA:699,1
DA:701,3
DA:702,3
DA:703,3
DA:705,3
DA:716,1
DA:719,1
DA:720,1
DA:721,1
DA:722,1
DA:723,1
DA:724,1
DA:725,1
DA:726,1
DA:727,1
DA:728,1
DA:729,1
DA:730,1
DA:731,1
DA:732,1
DA:733,1
DA:734,1
DA:735,1
DA:736,1
DA:737,1
DA:738,1
DA:739,1
DA:740,1
DA:741,1
DA:742,1
DA:743,1
DA:744,1
DA:745,1
DA:746,1
DA:747,1
DA:748,1
DA:749,1
DA:750,1
DA:751,1
DA:752,1
DA:753,1
DA:754,1
DA:755,1
DA:756,1
DA:757,1
DA:758,1
DA:759,1
DA:760,1
DA:761,1
DA:763,1
DA:764,1
DA:765,1
DA:766,1
DA:767,1
DA:769,5
DA:770,1
DA:771,1
DA:772,1
DA:773,1
DA:774,1
DA:776,5
DA:777,5
DA:778,5
DA:800,1
DA:803,1
DA:804,1
DA:805,1
DA:806,1
DA:807,1
DA:808,1
DA:810,1
DA:811,1
DA:812,1
DA:813,1
DA:815,1
DA:817,1
DA:819,1
DA:820,1
DA:821,1
DA:822,1
DA:823,1
DA:824,1
DA:825,1
DA:826,1
DA:827,1
DA:828,1
DA:829,1
DA:830,1
DA:831,1
DA:832,1
DA:833,1
DA:836,1
DA:837,1
DA:838,1
DA:839,1
DA:840,1
DA:841,1
DA:842,1
DA:843,1
DA:844,1
DA:845,1
DA:846,1
DA:847,1
DA:848,1
DA:849,1
DA:850,1
DA:851,1
DA:853,1
DA:854,1
DA:855,1
DA:857,1
DA:858,1
DA:860,1
DA:861,1
DA:862,1
DA:863,1
DA:864,1
DA:865,1
DA:866,1
DA:867,1
DA:868,1
DA:869,1
DA:870,1
DA:871,1
DA:872,1
DA:873,1
DA:876,1
DA:877,1
DA:878,1
DA:879,1
DA:880,1
DA:881,1
DA:882,1
DA:883,1
DA:884,1
DA:885,1
DA:886,1
DA:887,1
DA:888,1
DA:889,1
DA:891,1
DA:892,1
DA:894,1
DA:895,1
DA:897,1
DA:898,1
DA:899,1
DA:900,1
DA:901,1
DA:902,1
DA:903,1
DA:904,1
DA:905,1
DA:906,1
DA:907,1
DA:910,1
DA:911,1
DA:912,1
DA:913,1
DA:914,1
DA:915,1
DA:916,1
DA:917,1
DA:918,1
DA:919,1
DA:920,1
DA:921,1
DA:922,1
DA:923,1
DA:925,1
DA:926,1
DA:928,1
DA:929,1
DA:931,1
DA:933,1
DA:934,1
DA:935,1
DA:936,1
DA:937,1
DA:938,1
DA:939,1
DA:940,1
DA:942,1
DA:943,1
DA:944,1
DA:945,1
DA:946,1
DA:947,1
DA:948,1
DA:950,1
DA:952,1
DA:954,1
DA:955,1
DA:958,1
DA:959,1
DA:961,1
DA:962,1
DA:963,1
DA:965,1
DA:967,1
DA:969,1
DA:970,1
BRF:0
BRH:0
LF:708
LH:693
end_of_record
SF:/home/matthew/develop/personal/karva/crates/karva_core/src/discovery/models/function.rs
FN:57,_RNvMNtNtNtCs4RrqI5pJN37_10karva_core9discovery6models8functionNtB2_12TestFunction10definition
FN:61,_RNvMNtNtNtCs4RrqI5pJN37_10karva_core9discovery6models8functionNtB2_12TestFunction11py_function
FN:53,_RNvMNtNtNtCs4RrqI5pJN37_10karva_core9discovery6models8functionNtB2_12TestFunction13function_name
FN:70,_RNvMNtNtNtCs4RrqI5pJN37_10karva_core9discovery6models8functionNtB2_12TestFunction17display_with_line
FN:31,_RNvMNtNtNtCs4RrqI5pJN37_10karva_core9discovery6models8functionNtB2_12TestFunction3new
FN:49,_RNvMNtNtNtCs4RrqI5pJN37_10karva_core9discovery6models8functionNtB2_12TestFunction4name
FN:65,_RNvMNtNtNtCs4RrqI5pJN37_10karva_core9discovery6models8functionNtB2_12TestFunction4tags
FN:166,_RNvXs_NtNtNtCs4RrqI5pJN37_10karva_core9discovery6models8functionNtB4_12TestFunctionNtNtNtNtBa_10extensions8fixtures6traits16RequiresFixtures17required_fixtures
FN:75,_RINvMNtNtNtCs4RrqI5pJN37_10karva_core9discovery6models8functionNtB3_12TestFunction7collectNCNvMNtNtB9_10collection9collectorNtB1v_17TestCaseCollector21collect_test_function0EB9_
FN:127,_RNCINvMNtNtNtCs4RrqI5pJN37_10karva_core9discovery6models8functionNtB5_12TestFunction7collectNCNvMNtNtBb_10collection9collectorNtB1x_17TestCaseCollector21collect_test_function0E0Bb_
FN:229,_RNvNtNtNtNtCs1eKvc9ZrgUW_10karva_core9discovery6models8function5testss_17test_case_display
FN:204,_RNvNtNtNtNtCs1eKvc9ZrgUW_10karva_core9discovery6models8function5testss_23test_case_with_fixtures
FN:185,_RNvNtNtNtNtCs1eKvc9ZrgUW_10karva_core9discovery6models8function5testss_34test_case_construction_and_getters
FN:57,_RNvMNtNtNtCs1eKvc9ZrgUW_10karva_core9discovery6models8functionNtB2_12TestFunction10definition
FN:61,_RNvMNtNtNtCs1eKvc9ZrgUW_10karva_core9discovery6models8functionNtB2_12TestFunction11py_function
FN:53,_RNvMNtNtNtCs1eKvc9ZrgUW_10karva_core9discovery6models8functionNtB2_12TestFunction13function_name
FN:70,_RNvMNtNtNtCs1eKvc9ZrgUW_10karva_core9discovery6models8functionNtB2_12TestFunction17display_with_line
FN:31,_RNvMNtNtNtCs1eKvc9ZrgUW_10karva_core9discovery6models8functionNtB2_12TestFunction3new
FN:49,_RNvMNtNtNtCs1eKvc9ZrgUW_10karva_core9discovery6models8functionNtB2_12TestFunction4name
FN:65,_RNvMNtNtNtCs1eKvc9ZrgUW_10karva_core9discovery6models8functionNtB2_12TestFunction4tags
FN:166,_RNvXs_NtNtNtCs1eKvc9ZrgUW_10karva_core9discovery6models8functionNtB4_12TestFunctionNtNtNtNtBa_10extensions8fixtures6traits16RequiresFixtures17required_fixtures
FN:213,_RNCNCNvNtNtNtNtCs1eKvc9ZrgUW_10karva_core9discovery6models8function5testss_23test_case_with_fixtures00Bd_
FN:236,_RNCNvNtNtNtNtCs1eKvc9ZrgUW_10karva_core9discovery6models8function5testss_17test_case_display0Bb_
FN:205,_RNCNvNtNtNtNtCs1eKvc9ZrgUW_10karva_core9discovery6models8function5testss_23test_case_with_fixtures0Bb_
FN:191,_RNCNvNtNtNtNtCs1eKvc9ZrgUW_10karva_core9discovery6models8function5testss_34test_case_construction_and_getters0Bb_
FN:75,_RINvMNtNtNtCs1eKvc9ZrgUW_10karva_core9discovery6models8functionNtB3_12TestFunction7collectNCNvMNtNtB9_10collection9collectorNtB1v_17TestCaseCollector21collect_test_function0EB9_
FN:127,_RNCINvMNtNtNtCs1eKvc9ZrgUW_10karva_core9discovery6models8functionNtB5_12TestFunction7collectNCNvMNtNtBb_10collection9collectorNtB1x_17TestCaseCollector21collect_test_function0E0Bb_
FNDA:159,_RNvMNtNtNtCs4RrqI5pJN37_10karva_core9discovery6models8functionNtB2_12TestFunction10definition
FNDA:251,_RNvMNtNtNtCs4RrqI5pJN37_10karva_core9discovery6models8functionNtB2_12TestFunction11py_function
FNDA:6,_RNvMNtNtNtCs4RrqI5pJN37_10karva_core9discovery6models8functionNtB2_12TestFunction13function_name
FNDA:21,_RNvMNtNtNtCs4RrqI5pJN37_10karva_core9discovery6models8functionNtB2_12TestFunction17display_with_line
FNDA:211,_RNvMNtNtNtCs4RrqI5pJN37_10karva_core9discovery6models8functionNtB2_12TestFunction3new
FNDA:300,_RNvMNtNtNtCs4RrqI5pJN37_10karva_core9discovery6models8functionNtB2_12TestFunction4name
FNDA:522,_RNvMNtNtNtCs4RrqI5pJN37_10karva_core9discovery6models8functionNtB2_12TestFunction4tags
FNDA:1068,_RNvXs_NtNtNtCs4RrqI5pJN37_10karva_core9discovery6models8functionNtB4_12TestFunctionNtNtNtNtBa_10extensions8fixtures6traits16RequiresFixtures17required_fixtures
FNDA:206,_RINvMNtNtNtCs4RrqI5pJN37_10karva_core9discovery6models8functionNtB3_12TestFunction7collectNCNvMNtNtB9_10collection9collectorNtB1v_17TestCaseCollector21collect_test_function0EB9_
FNDA:157,_RNCINvMNtNtNtCs4RrqI5pJN37_10karva_core9discovery6models8functionNtB5_12TestFunction7collectNCNvMNtNtBb_10collection9collectorNtB1x_17TestCaseCollector21collect_test_function0E0Bb_
FNDA:1,_RNvNtNtNtNtCs1eKvc9ZrgUW_10karva_core9discovery6models8function5testss_17test_case_display
FNDA:1,_RNvNtNtNtNtCs1eKvc9ZrgUW_10karva_core9discovery6models8function5testss_23test_case_with_fixtures
FNDA:1,_RNvNtNtNtNtCs1eKvc9ZrgUW_10karva_core9discovery6models8function5testss_34test_case_construction_and_getters
FNDA:2,_RNvMNtNtNtCs1eKvc9ZrgUW_10karva_core9discovery6models8functionNtB2_12TestFunction10definition
FNDA:2,_RNvMNtNtNtCs1eKvc9ZrgUW_10karva_core9discovery6models8functionNtB2_12TestFunction11py_function
FNDA:22,_RNvMNtNtNtCs1eKvc9ZrgUW_10karva_core9discovery6models8functionNtB2_12TestFunction13function_name
FNDA:0,_RNvMNtNtNtCs1eKvc9ZrgUW_10karva_core9discovery6models8functionNtB2_12TestFunction17display_with_line
FNDA:71,_RNvMNtNtNtCs1eKvc9ZrgUW_10karva_core9discovery6models8functionNtB2_12TestFunction3new
FNDA:53,_RNvMNtNtNtCs1eKvc9ZrgUW_10karva_core9discovery6models8functionNtB2_12TestFunction4name
FNDA:4,_RNvMNtNtNtCs1eKvc9ZrgUW_10karva_core9discovery6models8functionNtB2_12TestFunction4tags
FNDA:36,_RNvXs_NtNtNtCs1eKvc9ZrgUW_10karva_core9discovery6models8functionNtB4_12TestFunctionNtNtNtNtBa_10extensions8fixtures6traits16RequiresFixtures17required_fixtures
FNDA:1,_RNCNCNvNtNtNtNtCs1eKvc9ZrgUW_10karva_core9discovery6models8function5testss_23test_case_with_fixtures00Bd_
FNDA:1,_RNCNvNtNtNtNtCs1eKvc9ZrgUW_10karva_core9discovery6models8function5testss_17test_case_display0Bb_
FNDA:1,_RNCNvNtNtNtNtCs1eKvc9ZrgUW_10karva_core9discovery6models8function5testss_23test_case_with_fixtures0Bb_
FNDA:1,_RNCNvNtNtNtNtCs1eKvc9ZrgUW_10karva_core9discovery6models8function5testss_34test_case_construction_and_getters0Bb_
FNDA:2,_RINvMNtNtNtCs1eKvc9ZrgUW_10karva_core9discovery6models8functionNtB3_12TestFunction7collectNCNvMNtNtB9_10collection9collectorNtB1v_17TestCaseCollector21collect_test_function0EB9_
FNDA:2,_RNCINvMNtNtNtCs1eKvc9ZrgUW_10karva_core9discovery6models8functionNtB5_12TestFunction7collectNCNvMNtNtBb_10collection9collectorNtB1x_17TestCaseCollector21collect_test_function0E0Bb_
FNF:17
FNH:17
DA:31,282
DA:32,282
DA:33,282
DA:34,282
DA:35,282
DA:36,282
DA:37,282
DA:39,282
DA:41,282
DA:42,282
DA:43,282
DA:44,282
DA:45,282
DA:46,282
DA:47,282
DA:49,353
DA:50,353
DA:51,353
DA:53,28
DA:54,28
DA:55,28
DA:57,161
DA:58,161
DA:59,161
DA:61,253
DA:62,253
DA:63,253
DA:65,526
DA:66,526
DA:67,526
DA:70,21
DA:71,21
DA:72,21
DA:75,208
DA:76,208
DA:77,208
DA:78,208
DA:79,208
DA:80,208
DA:81,208
DA:82,0
DA:86,208
DA:88,208
DA:90,208
DA:93,208
DA:94,0
DA:95,208
DA:97,208
DA:99,440
DA:100,232
DA:102,232
DA:107,232
DA:109,232
DA:111,420
DA:112,188
DA:114,124
DA:115,64
DA:116,64
DA:117,115
DA:118,128
DA:123,115
DA:124,115
DA:125,115
DA:126,115
DA:127,159
DA:129,115
DA:130,13
DA:131,13
DA:132,13
DA:135,232
DA:136,220
DA:138,12
DA:140,12
DA:141,12
DA:142,12
DA:143,12
DA:144,12
DA:145,12
DA:148,506
DA:149,274
DA:150,274
DA:151,274
DA:152,274
DA:154,232
DA:155,232
DA:156,232
DA:157,232
DA:158,232
DA:161,208
DA:162,208
DA:166,1104
DA:167,1104
DA:169,1104
DA:171,1104
DA:172,1104
DA:185,1
DA:186,1
DA:187,1
DA:189,1
DA:190,1
DA:191,1
DA:193,1
DA:195,1
DA:196,1
DA:197,1
DA:198,1
DA:199,1
DA:201,1
DA:204,1
DA:205,1
DA:206,1
DA:207,1
DA:208,1
DA:209,1
DA:211,1
DA:212,1
DA:213,1
DA:215,1
DA:217,1
DA:218,1
DA:219,1
DA:220,1
DA:222,1
DA:223,1
DA:224,1
DA:225,1
DA:226,1
DA:229,1
DA:230,1
DA:232,1
DA:234,1
DA:235,1
DA:236,1
DA:238,1
DA:240,1
DA:241,1
DA:242,1
DA:244,1
DA:246,1
DA:247,1
DA:248,1
DA:250,1
BRF:0
BRH:0
LF:146
LH:144
end_of_record
SF:/home/matthew/develop/personal/karva/crates/karva_core/src/discovery/models/module.rs
FN:61,_RNCNvMNtNtNtCs4RrqI5pJN37_10karva_core9discovery6models6moduleNtB4_16DiscoveredModule21filter_test_functions0Ba_
FN:97,_RNCNvMNtNtNtCs4RrqI5pJN37_10karva_core9discovery6models6moduleNtB4_16DiscoveredModule6update0Ba_
FN:107,_RNCNvMNtNtNtCs4RrqI5pJN37_10karva_core9discovery6models6moduleNtB4_16DiscoveredModule6updates_0Ba_
FN:137,_RNCNvXs_NtNtNtCs4RrqI5pJN37_10karva_core9discovery6models6moduleNtB6_10ModuleTypeINtNtCs3vi8RLxhvdw_4core7convert4FromRNtCs6l2BbXnFYWC_6camino11Utf8PathBufE4from0Bc_
FN:87,_RNvMNtNtNtCs4RrqI5pJN37_10karva_core9discovery6models6moduleNtB2_16DiscoveredModule10line_index
FN:33,_RNvMNtNtNtCs4RrqI5pJN37_10karva_core9discovery6models6moduleNtB2_16DiscoveredModule11module_path
FN:45,_RNvMNtNtNtCs4RrqI5pJN37_10karva_core9discovery6models6moduleNtB2_16DiscoveredModule11module_type
FN:83,_RNvMNtNtNtCs4RrqI5pJN37_10karva_core9discovery6models6moduleNtB2_16DiscoveredModule11source_text
FN:75,_RNvMNtNtNtCs4RrqI5pJN37_10karva_core9discovery6models6moduleNtB2_16DiscoveredModule13with_fixtures
FN:49,_RNvMNtNtNtCs4RrqI5pJN37_10karva_core9discovery6models6moduleNtB2_16DiscoveredModule14test_functions
FN:53,_RNvMNtNtNtCs4RrqI5pJN37_10karva_core9discovery6models6moduleNtB2_16DiscoveredModule19with_test_functions
FN:79,_RNvMNtNtNtCs4RrqI5pJN37_10karva_core9discovery6models6moduleNtB2_16DiscoveredModule20total_test_functions
FN:60,_RNvMNtNtNtCs4RrqI5pJN37_10karva_core9discovery6models6moduleNtB2_16DiscoveredModule21filter_test_functions
FN:18,_RNvMNtNtNtCs4RrqI5pJN37_10karva_core9discovery6models6moduleNtB2_16DiscoveredModule3new
FN:41,_RNvMNtNtNtCs4RrqI5pJN37_10karva_core9discovery6models6moduleNtB2_16DiscoveredModule4name
FN:37,_RNvMNtNtNtCs4RrqI5pJN37_10karva_core9discovery6models6moduleNtB2_16DiscoveredModule4path
FN:91,_RNvMNtNtNtCs4RrqI5pJN37_10karva_core9discovery6models6moduleNtB2_16DiscoveredModule6update
FN:71,_RNvMNtNtNtCs4RrqI5pJN37_10karva_core9discovery6models6moduleNtB2_16DiscoveredModule8fixtures
FN:115,_RNvMNtNtNtCs4RrqI5pJN37_10karva_core9discovery6models6moduleNtB2_16DiscoveredModule8is_empty
FN:134,_RNvXs_NtNtNtCs4RrqI5pJN37_10karva_core9discovery6models6moduleNtB4_10ModuleTypeINtNtCs3vi8RLxhvdw_4core7convert4FromRNtCs6l2BbXnFYWC_6camino11Utf8PathBufE4from
FN:68,_RNCNvMNtNtNtCs1eKvc9ZrgUW_10karva_core9discovery6models6moduleNtB4_16DiscoveredModule17get_test_function0Ba_
FN:61,_RNCNvMNtNtNtCs1eKvc9ZrgUW_10karva_core9discovery6models6moduleNtB4_16DiscoveredModule21filter_test_functions0Ba_
FN:97,_RNCNvMNtNtNtCs1eKvc9ZrgUW_10karva_core9discovery6models6moduleNtB4_16DiscoveredModule6update0Ba_
FN:107,_RNCNvMNtNtNtCs1eKvc9ZrgUW_10karva_core9discovery6models6moduleNtB4_16DiscoveredModule6updates_0Ba_
FN:137,_RNCNvXs_NtNtNtCs1eKvc9ZrgUW_10karva_core9discovery6models6moduleNtB6_10ModuleTypeINtNtCs3vi8RLxhvdw_4core7convert4FromRNtCs6l2BbXnFYWC_6camino11Utf8PathBufE4from0Bc_
FN:87,_RNvMNtNtNtCs1eKvc9ZrgUW_10karva_core9discovery6models6moduleNtB2_16DiscoveredModule10line_index
FN:33,_RNvMNtNtNtCs1eKvc9ZrgUW_10karva_core9discovery6models6moduleNtB2_16DiscoveredModule11module_path
FN:45,_RNvMNtNtNtCs1eKvc9ZrgUW_10karva_core9discovery6models6moduleNtB2_16DiscoveredModule11module_type
FN:83,_RNvMNtNtNtCs1eKvc9ZrgUW_10karva_core9discovery6models6moduleNtB2_16DiscoveredModule11source_text
FN:75,_RNvMNtNtNtCs1eKvc9ZrgUW_10karva_core9discovery6models6moduleNtB2_16DiscoveredModule13with_fixtures
FN:49,_RNvMNtNtNtCs1eKvc9ZrgUW_10karva_core9discovery6models6moduleNtB2_16DiscoveredModule14test_functions
FN:65,_RNvMNtNtNtCs1eKvc9ZrgUW_10karva_core9discovery6models6moduleNtB2_16DiscoveredModule17get_test_function
FN:53,_RNvMNtNtNtCs1eKvc9ZrgUW_10karva_core9discovery6models6moduleNtB2_16DiscoveredModule19with_test_functions
FN:79,_RNvMNtNtNtCs1eKvc9ZrgUW_10karva_core9discovery6models6moduleNtB2_16DiscoveredModule20total_test_functions
FN:60,_RNvMNtNtNtCs1eKvc9ZrgUW_10karva_core9discovery6models6moduleNtB2_16DiscoveredModule21filter_test_functions
FN:18,_RNvMNtNtNtCs1eKvc9ZrgUW_10karva_core9discovery6models6moduleNtB2_16DiscoveredModule3new
FN:41,_RNvMNtNtNtCs1eKvc9ZrgUW_10karva_core9discovery6models6moduleNtB2_16DiscoveredModule4name
FN:37,_RNvMNtNtNtCs1eKvc9ZrgUW_10karva_core9discovery6models6moduleNtB2_16DiscoveredModule4path
FN:91,_RNvMNtNtNtCs1eKvc9ZrgUW_10karva_core9discovery6models6moduleNtB2_16DiscoveredModule6update
FN:120,_RNvMNtNtNtCs1eKvc9ZrgUW_10karva_core9discovery6models6moduleNtB2_16DiscoveredModule7display
FN:71,_RNvMNtNtNtCs1eKvc9ZrgUW_10karva_core9discovery6models6moduleNtB2_16DiscoveredModule8fixtures
FN:115,_RNvMNtNtNtCs1eKvc9ZrgUW_10karva_core9discovery6models6moduleNtB2_16DiscoveredModule8is_empty
FN:153,_RNvMs0_NtNtNtCs1eKvc9ZrgUW_10karva_core9discovery6models6moduleNtB5_23DisplayDiscoveredModule3new
FN:160,_RNvXs1_NtNtNtCs1eKvc9ZrgUW_10karva_core9discovery6models6moduleNtB5_23DisplayDiscoveredModuleNtNtCs3vi8RLxhvdw_4core3fmt7Display3fmt
FN:134,_RNvXs_NtNtNtCs1eKvc9ZrgUW_10karva_core9discovery6models6moduleNtB4_10ModuleTypeINtNtCs3vi8RLxhvdw_4core7convert4FromRNtCs6l2BbXnFYWC_6camino11Utf8PathBufE4from
FNDA:6,_RNCNvMNtNtNtCs4RrqI5pJN37_10karva_core9discovery6models6moduleNtB4_16DiscoveredModule21filter_test_functions0Ba_
FNDA:4,_RNCNvMNtNtNtCs4RrqI5pJN37_10karva_core9discovery6models6moduleNtB4_16DiscoveredModule6update0Ba_
FNDA:0,_RNCNvMNtNtNtCs4RrqI5pJN37_10karva_core9discovery6models6moduleNtB4_16DiscoveredModule6updates_0Ba_
FNDA:353,_RNCNvXs_NtNtNtCs4RrqI5pJN37_10karva_core9discovery6models6moduleNtB6_10ModuleTypeINtNtCs3vi8RLxhvdw_4core7convert4FromRNtCs6l2BbXnFYWC_6camino11Utf8PathBufE4from0Bc_
FNDA:148,_RNvMNtNtNtCs4RrqI5pJN37_10karva_core9discovery6models6moduleNtB2_16DiscoveredModule10line_index
FNDA:390,_RNvMNtNtNtCs4RrqI5pJN37_10karva_core9discovery6models6moduleNtB2_16DiscoveredModule11module_path
FNDA:532,_RNvMNtNtNtCs4RrqI5pJN37_10karva_core9discovery6models6moduleNtB2_16DiscoveredModule11module_type
FNDA:325,_RNvMNtNtNtCs4RrqI5pJN37_10karva_core9discovery6models6moduleNtB2_16DiscoveredModule11source_text
FNDA:179,_RNvMNtNtNtCs4RrqI5pJN37_10karva_core9discovery6models6moduleNtB2_16DiscoveredModule13with_fixtures
FNDA:854,_RNvMNtNtNtCs4RrqI5pJN37_10karva_core9discovery6models6moduleNtB2_16DiscoveredModule14test_functions
FNDA:162,_RNvMNtNtNtCs4RrqI5pJN37_10karva_core9discovery6models6moduleNtB2_16DiscoveredModule19with_test_functions
FNDA:539,_RNvMNtNtNtCs4RrqI5pJN37_10karva_core9discovery6models6moduleNtB2_16DiscoveredModule20total_test_functions
FNDA:3,_RNvMNtNtNtCs4RrqI5pJN37_10karva_core9discovery6models6moduleNtB2_16DiscoveredModule21filter_test_functions
FNDA:179,_RNvMNtNtNtCs4RrqI5pJN37_10karva_core9discovery6models6moduleNtB2_16DiscoveredModule3new
FNDA:179,_RNvMNtNtNtCs4RrqI5pJN37_10karva_core9discovery6models6moduleNtB2_16DiscoveredModule4name
FNDA:2301,_RNvMNtNtNtCs4RrqI5pJN37_10karva_core9discovery6models6moduleNtB2_16DiscoveredModule4path
FNDA:2,_RNvMNtNtNtCs4RrqI5pJN37_10karva_core9discovery6models6moduleNtB2_16DiscoveredModule6update
FNDA:1277,_RNvMNtNtNtCs4RrqI5pJN37_10karva_core9discovery6models6moduleNtB2_16DiscoveredModule8fixtures
FNDA:716,_RNvMNtNtNtCs4RrqI5pJN37_10karva_core9discovery6models6moduleNtB2_16DiscoveredModule8is_empty
FNDA:353,_RNvXs_NtNtNtCs4RrqI5pJN37_10karva_core9discovery6models6moduleNtB4_10ModuleTypeINtNtCs3vi8RLxhvdw_4core7convert4FromRNtCs6l2BbXnFYWC_6camino11Utf8PathBufE4from
FNDA:22,_RNCNvMNtNtNtCs1eKvc9ZrgUW_10karva_core9discovery6models6moduleNtB4_16DiscoveredModule17get_test_function0Ba_
FNDA:0,_RNCNvMNtNtNtCs1eKvc9ZrgUW_10karva_core9discovery6models6moduleNtB4_16DiscoveredModule21filter_test_functions0Ba_
FNDA:4,_RNCNvMNtNtNtCs1eKvc9ZrgUW_10karva_core9discovery6models6moduleNtB4_16DiscoveredModule6update0Ba_
FNDA:4,_RNCNvMNtNtNtCs1eKvc9ZrgUW_10karva_core9discovery6models6moduleNtB4_16DiscoveredModule6updates_0Ba_
FNDA:215,_RNCNvXs_NtNtNtCs1eKvc9ZrgUW_10karva_core9discovery6models6moduleNtB6_10ModuleTypeINtNtCs3vi8RLxhvdw_4core7convert4FromRNtCs6l2BbXnFYWC_6camino11Utf8PathBufE4from0Bc_
FNDA:49,_RNvMNtNtNtCs1eKvc9ZrgUW_10karva_core9discovery6models6moduleNtB2_16DiscoveredModule10line_index
FNDA:434,_RNvMNtNtNtCs1eKvc9ZrgUW_10karva_core9discovery6models6moduleNtB2_16DiscoveredModule11module_path
FNDA:398,_RNvMNtNtNtCs1eKvc9ZrgUW_10karva_core9discovery6models6moduleNtB2_16DiscoveredModule11module_type
FNDA:174,_RNvMNtNtNtCs1eKvc9ZrgUW_10karva_core9discovery6models6moduleNtB2_16DiscoveredModule11source_text
FNDA:126,_RNvMNtNtNtCs1eKvc9ZrgUW_10karva_core9discovery6models6moduleNtB2_16DiscoveredModule13with_fixtures
FNDA:75,_RNvMNtNtNtCs1eKvc9ZrgUW_10karva_core9discovery6models6moduleNtB2_16DiscoveredModule14test_functions
FNDA:19,_RNvMNtNtNtCs1eKvc9ZrgUW_10karva_core9discovery6models6moduleNtB2_16DiscoveredModule17get_test_function
FNDA:64,_RNvMNtNtNtCs1eKvc9ZrgUW_10karva_core9discovery6models6moduleNtB2_16DiscoveredModule19with_test_functions
FNDA:26,_RNvMNtNtNtCs1eKvc9ZrgUW_10karva_core9discovery6models6moduleNtB2_16DiscoveredModule20total_test_functions
FNDA:0,_RNvMNtNtNtCs1eKvc9ZrgUW_10karva_core9discovery6models6moduleNtB2_16DiscoveredModule21filter_test_functions
FNDA:126,_RNvMNtNtNtCs1eKvc9ZrgUW_10karva_core9discovery6models6moduleNtB2_16DiscoveredModule3new
FNDA:207,_RNvMNtNtNtCs1eKvc9ZrgUW_10karva_core9discovery6models6moduleNtB2_16DiscoveredModule4name
FNDA:1736,_RNvMNtNtNtCs1eKvc9ZrgUW_10karva_core9discovery6models6moduleNtB2_16DiscoveredModule4path
FNDA:6,_RNvMNtNtNtCs1eKvc9ZrgUW_10karva_core9discovery6models6moduleNtB2_16DiscoveredModule6update
FNDA:62,_RNvMNtNtNtCs1eKvc9ZrgUW_10karva_core9discovery6models6moduleNtB2_16DiscoveredModule7display
FNDA:194,_RNvMNtNtNtCs1eKvc9ZrgUW_10karva_core9discovery6models6moduleNtB2_16DiscoveredModule8fixtures
FNDA:548,_RNvMNtNtNtCs1eKvc9ZrgUW_10karva_core9discovery6models6moduleNtB2_16DiscoveredModule8is_empty
FNDA:62,_RNvMs0_NtNtNtCs1eKvc9ZrgUW_10karva_core9discovery6models6moduleNtB5_23DisplayDiscoveredModule3new
FNDA:62,_RNvXs1_NtNtNtCs1eKvc9ZrgUW_10karva_core9discovery6models6moduleNtB5_23DisplayDiscoveredModuleNtNtCs3vi8RLxhvdw_4core3fmt7Display3fmt
FNDA:215,_RNvXs_NtNtNtCs1eKvc9ZrgUW_10karva_core9discovery6models6moduleNtB4_10ModuleTypeINtNtCs3vi8RLxhvdw_4core7convert4FromRNtCs6l2BbXnFYWC_6camino11Utf8PathBufE4from
FNF:25
FNH:25
DA:18,305
DA:19,305
DA:21,305
DA:23,305
DA:24,305
DA:25,305
DA:26,305
DA:27,305
DA:28,305
DA:29,305
DA:30,305
DA:31,305
DA:33,824
DA:34,824
DA:35,824
DA:37,4037
DA:38,4037
DA:39,4037
DA:41,386
DA:42,386
DA:43,386
DA:45,930
DA:46,930
DA:47,930
DA:49,929
DA:50,929
DA:51,929
DA:53,226
DA:54,226
DA:55,226
DA:56,226
DA:57,226
DA:58,226
DA:60,3
DA:61,6
DA:62,3
DA:65,19
DA:66,19
DA:67,19
DA:68,22
DA:69,19
DA:71,1471
DA:72,1471
DA:73,1471
DA:75,305
DA:76,305
DA:77,305
DA:79,565
DA:80,565
DA:81,565
DA:83,499
DA:84,499
DA:85,499
DA:87,197
DA:88,197
DA:89,197
DA:91,8
DA:92,8
DA:93,15
DA:94,7
DA:95,7
DA:96,7
DA:97,8
DA:98,2
DA:99,2
DA:100,5
DA:103,12
DA:104,4
DA:105,4
DA:106,4
DA:107,4
DA:108,0
DA:109,0
DA:110,4
DA:112,0
DA:113,8
DA:115,1264
DA:116,1264
DA:117,1264
DA:120,62
DA:121,62
DA:122,62
DA:134,568
DA:135,568
DA:136,568
DA:137,568
DA:139,141
DA:141,427
DA:143,568
DA:153,62
DA:154,62
DA:155,62
DA:160,62
DA:161,62
DA:162,62
DA:163,62
DA:164,62
DA:165,41
DA:166,5
DA:167,36
DA:168,41
DA:170,62
DA:171,62
DA:172,62
DA:173,31
DA:174,0
DA:175,31
DA:176,31
DA:178,62
DA:179,62
DA:180,62
BRF:0
BRH:0
LF:116
LH:110
end_of_record
SF:/home/matthew/develop/personal/karva/crates/karva_core/src/discovery/models/package.rs
FN:78,_RNvMNtNtNtCs4RrqI5pJN37_10karva_core9discovery6models7packageNtB2_17DiscoveredPackage10add_module
FN:132,_RNvMNtNtNtCs4RrqI5pJN37_10karva_core9discovery6models7packageNtB2_17DiscoveredPackage11add_package
FN:201,_RNvMNtNtNtCs4RrqI5pJN37_10karva_core9discovery6models7packageNtB2_17DiscoveredPackage20configuration_module
FN:165,_RNvMNtNtNtCs4RrqI5pJN37_10karva_core9discovery6models7packageNtB2_17DiscoveredPackage20total_test_functions
FN:122,_RNvMNtNtNtCs4RrqI5pJN37_10karva_core9discovery6models7packageNtB2_17DiscoveredPackage24add_configuration_module
FN:22,_RNvMNtNtNtCs4RrqI5pJN37_10karva_core9discovery6models7packageNtB2_17DiscoveredPackage3new
FN:31,_RNvMNtNtNtCs4RrqI5pJN37_10karva_core9discovery6models7packageNtB2_17DiscoveredPackage4path
FN:210,_RNvMNtNtNtCs4RrqI5pJN37_10karva_core9discovery6models7packageNtB2_17DiscoveredPackage6shrink
FN:176,_RNvMNtNtNtCs4RrqI5pJN37_10karva_core9discovery6models7packageNtB2_17DiscoveredPackage6update
FN:35,_RNvMNtNtNtCs4RrqI5pJN37_10karva_core9discovery6models7packageNtB2_17DiscoveredPackage7modules
FN:226,_RNvMNtNtNtCs4RrqI5pJN37_10karva_core9discovery6models7packageNtB2_17DiscoveredPackage8is_empty
FN:39,_RNvMNtNtNtCs4RrqI5pJN37_10karva_core9discovery6models7packageNtB2_17DiscoveredPackage8packages
FN:87,_RNCNvMNtNtNtCs4RrqI5pJN37_10karva_core9discovery6models7packageNtB4_17DiscoveredPackage10add_module0Ba_
FN:202,_RNCNvMNtNtNtCs4RrqI5pJN37_10karva_core9discovery6models7packageNtB4_17DiscoveredPackage20configuration_module0Ba_
FN:211,_RNCNvMNtNtNtCs4RrqI5pJN37_10karva_core9discovery6models7packageNtB4_17DiscoveredPackage6shrink0Ba_
FN:219,_RNCNvMNtNtNtCs4RrqI5pJN37_10karva_core9discovery6models7packageNtB4_17DiscoveredPackage6shrinks_0Ba_
FN:78,_RNvMNtNtNtCs1eKvc9ZrgUW_10karva_core9discovery6models7packageNtB2_17DiscoveredPackage10add_module
FN:44,_RNvMNtNtNtCs1eKvc9ZrgUW_10karva_core9discovery6models7packageNtB2_17DiscoveredPackage10get_module
FN:132,_RNvMNtNtNtCs1eKvc9ZrgUW_10karva_core9discovery6models7packageNtB2_17DiscoveredPackage11add_package
FN:58,_RNvMNtNtNtCs1eKvc9ZrgUW_10karva_core9discovery6models7packageNtB2_17DiscoveredPackage11get_package
FN:190,_RNvMNtNtNtCs1eKvc9ZrgUW_10karva_core9discovery6models7packageNtB2_17DiscoveredPackage14test_functions
FN:201,_RNvMNtNtNtCs1eKvc9ZrgUW_10karva_core9discovery6models7packageNtB2_17DiscoveredPackage20configuration_module
FN:165,_RNvMNtNtNtCs1eKvc9ZrgUW_10karva_core9discovery6models7packageNtB2_17DiscoveredPackage20total_test_functions
FN:122,_RNvMNtNtNtCs1eKvc9ZrgUW_10karva_core9discovery6models7packageNtB2_17DiscoveredPackage24add_configuration_module
FN:22,_RNvMNtNtNtCs1eKvc9ZrgUW_10karva_core9discovery6models7packageNtB2_17DiscoveredPackage3new
FN:31,_RNvMNtNtNtCs1eKvc9ZrgUW_10karva_core9discovery6models7packageNtB2_17DiscoveredPackage4path
FN:210,_RNvMNtNtNtCs1eKvc9ZrgUW_10karva_core9discovery6models7packageNtB2_17DiscoveredPackage6shrink
FN:176,_RNvMNtNtNtCs1eKvc9ZrgUW_10karva_core9discovery6models7packageNtB2_17DiscoveredPackage6update
FN:231,_RNvMNtNtNtCs1eKvc9ZrgUW_10karva_core9discovery6models7packageNtB2_17DiscoveredPackage7display
FN:35,_RNvMNtNtNtCs1eKvc9ZrgUW_10karva_core9discovery6models7packageNtB2_17DiscoveredPackage7modules
FN:226,_RNvMNtNtNtCs1eKvc9ZrgUW_10karva_core9discovery6models7packageNtB2_17DiscoveredPackage8is_empty
FN:39,_RNvMNtNtNtCs1eKvc9ZrgUW_10karva_core9discovery6models7packageNtB2_17DiscoveredPackage8packages
FN:243,_RNvMs_NtNtNtCs1eKvc9ZrgUW_10karva_core9discovery6models7packageNtB4_24DisplayDiscoveredPackage3new
FN:251,_RNvNvXs0_NtNtNtCs1eKvc9ZrgUW_10karva_core9discovery6models7packageNtB7_24DisplayDiscoveredPackageNtNtCs3vi8RLxhvdw_4core3fmt7Display3fmt10write_tree
FN:250,_RNvXs0_NtNtNtCs1eKvc9ZrgUW_10karva_core9discovery6models7packageNtB5_24DisplayDiscoveredPackageNtNtCs3vi8RLxhvdw_4core3fmt7Display3fmt
FN:87,_RNCNvMNtNtNtCs1eKvc9ZrgUW_10karva_core9discovery6models7packageNtB4_17DiscoveredPackage10add_module0Ba_
FN:202,_RNCNvMNtNtNtCs1eKvc9ZrgUW_10karva_core9discovery6models7packageNtB4_17DiscoveredPackage20configuration_module0Ba_
FN:211,_RNCNvMNtNtNtCs1eKvc9ZrgUW_10karva_core9discovery6models7packageNtB4_17DiscoveredPackage6shrink0Ba_
FN:219,_RNCNvMNtNtNtCs1eKvc9ZrgUW_10karva_core9discovery6models7packageNtB4_17DiscoveredPackage6shrinks_0Ba_
FN:259,_RNCNvNvXs0_NtNtNtCs1eKvc9ZrgUW_10karva_core9discovery6models7packageNtB9_24DisplayDiscoveredPackageNtNtCs3vi8RLxhvdw_4core3fmt7Display3fmt10write_tree0Bf_
FN:266,_RNCNvNvXs0_NtNtNtCs1eKvc9ZrgUW_10karva_core9discovery6models7packageNtB9_24DisplayDiscoveredPackageNtNtCs3vi8RLxhvdw_4core3fmt7Display3fmt10write_trees_0Bf_
FNDA:543,_RNvMNtNtNtCs4RrqI5pJN37_10karva_core9discovery6models7packageNtB2_17DiscoveredPackage10add_module
FNDA:1412,_RNvMNtNtNtCs4RrqI5pJN37_10karva_core9discovery6models7packageNtB2_17DiscoveredPackage11add_package
FNDA:1531,_RNvMNtNtNtCs4RrqI5pJN37_10karva_core9discovery6models7packageNtB2_17DiscoveredPackage20configuration_module
FNDA:485,_RNvMNtNtNtCs4RrqI5pJN37_10karva_core9discovery6models7packageNtB2_17DiscoveredPackage20total_test_functions
FNDA:17,_RNvMNtNtNtCs4RrqI5pJN37_10karva_core9discovery6models7packageNtB2_17DiscoveredPackage24add_configuration_module
FNDA:1251,_RNvMNtNtNtCs4RrqI5pJN37_10karva_core9discovery6models7packageNtB2_17DiscoveredPackage3new
FNDA:10213,_RNvMNtNtNtCs4RrqI5pJN37_10karva_core9discovery6models7packageNtB2_17DiscoveredPackage4path
FNDA:316,_RNvMNtNtNtCs4RrqI5pJN37_10karva_core9discovery6models7packageNtB2_17DiscoveredPackage6shrink
FNDA:781,_RNvMNtNtNtCs4RrqI5pJN37_10karva_core9discovery6models7packageNtB2_17DiscoveredPackage6update
FNDA:1107,_RNvMNtNtNtCs4RrqI5pJN37_10karva_core9discovery6models7packageNtB2_17DiscoveredPackage7modules
FNDA:315,_RNvMNtNtNtCs4RrqI5pJN37_10karva_core9discovery6models7packageNtB2_17DiscoveredPackage8is_empty
FNDA:1107,_RNvMNtNtNtCs4RrqI5pJN37_10karva_core9discovery6models7packageNtB2_17DiscoveredPackage8packages
FNDA:539,_RNCNvMNtNtNtCs4RrqI5pJN37_10karva_core9discovery6models7packageNtB4_17DiscoveredPackage10add_module0Ba_
FNDA:114,_RNCNvMNtNtNtCs4RrqI5pJN37_10karva_core9discovery6models7packageNtB4_17DiscoveredPackage20configuration_module0Ba_
FNDA:173,_RNCNvMNtNtNtCs4RrqI5pJN37_10karva_core9discovery6models7packageNtB4_17DiscoveredPackage6shrink0Ba_
FNDA:315,_RNCNvMNtNtNtCs4RrqI5pJN37_10karva_core9discovery6models7packageNtB4_17DiscoveredPackage6shrinks_0Ba_
FNDA:433,_RNvMNtNtNtCs1eKvc9ZrgUW_10karva_core9discovery6models7packageNtB2_17DiscoveredPackage10add_module
FNDA:18,_RNvMNtNtNtCs1eKvc9ZrgUW_10karva_core9discovery6models7packageNtB2_17DiscoveredPackage10get_module
FNDA:680,_RNvMNtNtNtCs1eKvc9ZrgUW_10karva_core9discovery6models7packageNtB2_17DiscoveredPackage11add_package
FNDA:48,_RNvMNtNtNtCs1eKvc9ZrgUW_10karva_core9discovery6models7packageNtB2_17DiscoveredPackage11get_package
FNDA:5,_RNvMNtNtNtCs1eKvc9ZrgUW_10karva_core9discovery6models7packageNtB2_17DiscoveredPackage14test_functions
FNDA:176,_RNvMNtNtNtCs1eKvc9ZrgUW_10karva_core9discovery6models7packageNtB2_17DiscoveredPackage20configuration_module
FNDA:44,_RNvMNtNtNtCs1eKvc9ZrgUW_10karva_core9discovery6models7packageNtB2_17DiscoveredPackage20total_test_functions
FNDA:62,_RNvMNtNtNtCs1eKvc9ZrgUW_10karva_core9discovery6models7packageNtB2_17DiscoveredPackage24add_configuration_module
FNDA:537,_RNvMNtNtNtCs1eKvc9ZrgUW_10karva_core9discovery6models7packageNtB2_17DiscoveredPackage3new
FNDA:5308,_RNvMNtNtNtCs1eKvc9ZrgUW_10karva_core9discovery6models7packageNtB2_17DiscoveredPackage4path
FNDA:165,_RNvMNtNtNtCs1eKvc9ZrgUW_10karva_core9discovery6models7packageNtB2_17DiscoveredPackage6shrink
FNDA:340,_RNvMNtNtNtCs1eKvc9ZrgUW_10karva_core9discovery6models7packageNtB2_17DiscoveredPackage6update
FNDA:32,_RNvMNtNtNtCs1eKvc9ZrgUW_10karva_core9discovery6models7packageNtB2_17DiscoveredPackage7display
FNDA:106,_RNvMNtNtNtCs1eKvc9ZrgUW_10karva_core9discovery6models7packageNtB2_17DiscoveredPackage7modules
FNDA:144,_RNvMNtNtNtCs1eKvc9ZrgUW_10karva_core9discovery6models7packageNtB2_17DiscoveredPackage8is_empty
FNDA:165,_RNvMNtNtNtCs1eKvc9ZrgUW_10karva_core9discovery6models7packageNtB2_17DiscoveredPackage8packages
FNDA:32,_RNvMs_NtNtNtCs1eKvc9ZrgUW_10karva_core9discovery6models7packageNtB4_24DisplayDiscoveredPackage3new
FNDA:91,_RNvNvXs0_NtNtNtCs1eKvc9ZrgUW_10karva_core9discovery6models7packageNtB7_24DisplayDiscoveredPackageNtNtCs3vi8RLxhvdw_4core3fmt7Display3fmt10write_tree
FNDA:32,_RNvXs0_NtNtNtCs1eKvc9ZrgUW_10karva_core9discovery6models7packageNtB5_24DisplayDiscoveredPackageNtNtCs3vi8RLxhvdw_4core3fmt7Display3fmt
FNDA:428,_RNCNvMNtNtNtCs1eKvc9ZrgUW_10karva_core9discovery6models7packageNtB4_17DiscoveredPackage10add_module0Ba_
FNDA:160,_RNCNvMNtNtNtCs1eKvc9ZrgUW_10karva_core9discovery6models7packageNtB4_17DiscoveredPackage20configuration_module0Ba_
FNDA:115,_RNCNvMNtNtNtCs1eKvc9ZrgUW_10karva_core9discovery6models7packageNtB4_17DiscoveredPackage6shrink0Ba_
FNDA:144,_RNCNvMNtNtNtCs1eKvc9ZrgUW_10karva_core9discovery6models7packageNtB4_17DiscoveredPackage6shrinks_0Ba_
FNDA:18,_RNCNvNvXs0_NtNtNtCs1eKvc9ZrgUW_10karva_core9discovery6models7packageNtB9_24DisplayDiscoveredPackageNtNtCs3vi8RLxhvdw_4core3fmt7Display3fmt10write_tree0Bf_
FNDA:2,_RNCNvNvXs0_NtNtNtCs1eKvc9ZrgUW_10karva_core9discovery6models7packageNtB9_24DisplayDiscoveredPackageNtNtCs3vi8RLxhvdw_4core3fmt7Display3fmt10write_trees_0Bf_
FNF:25
FNH:25
DA:22,1788
DA:23,1788
DA:24,1788
DA:25,1788
DA:26,1788
DA:27,1788
DA:28,1788
DA:29,1788
DA:31,15521
DA:32,15521
DA:33,15521
DA:35,1213
DA:36,1213
DA:37,1213
DA:39,1272
DA:40,1272
DA:41,1272
DA:44,18
DA:45,18
DA:46,18
DA:48,0
DA:49,0
DA:50,0
DA:51,0
DA:53,0
DA:55,18
DA:58,48
DA:59,48
DA:60,34
DA:62,14
DA:63,14
DA:64,14
DA:65,0
DA:67,0
DA:69,48
DA:78,976
DA:79,976
DA:80,0
DA:81,976
DA:83,976
DA:84,9
DA:85,967
DA:87,967
DA:88,938
DA:89,8
DA:90,8
DA:91,930
DA:92,276
DA:93,654
DA:94,930
DA:96,938
DA:97,29
DA:99,29
DA:100,0
DA:103,29
DA:105,29
DA:106,0
DA:107,29
DA:109,29
DA:110,29
DA:112,29
DA:113,8
DA:114,21
DA:115,21
DA:116,21
DA:117,21
DA:118,21
DA:119,21
DA:120,976
DA:122,79
DA:123,79
DA:124,79
DA:125,79
DA:132,2092
DA:133,2092
DA:134,0
DA:135,2092
DA:137,2092
DA:138,1121
DA:139,1121
DA:140,971
DA:142,971
DA:143,0
DA:146,971
DA:148,971
DA:149,0
DA:150,971
DA:152,971
DA:153,971
DA:155,971
DA:156,39
DA:157,932
DA:158,932
DA:159,932
DA:160,932
DA:161,932
DA:162,932
DA:163,2092
DA:165,529
DA:166,529
DA:167,529
DA:168,390
DA:169,390
DA:170,529
DA:171,194
DA:172,194
DA:173,529
DA:174,529
DA:176,1121
DA:177,1763
DA:178,642
DA:179,642
DA:180,1615
DA:181,494
DA:182,494
DA:184,1121
DA:185,203
DA:186,918
DA:187,1121
DA:190,5
DA:191,5
DA:192,5
DA:193,3
DA:194,3
DA:195,5
DA:196,2
DA:197,2
DA:198,5
DA:199,5
DA:201,1707
DA:202,1707
DA:203,274
DA:204,274
DA:205,274
DA:206,274
DA:207,1707
DA:210,481
DA:211,481
DA:213,481
DA:214,75
DA:215,0
DA:216,75
DA:217,406
DA:219,481
DA:221,481
DA:222,273
DA:223,273
DA:224,481
DA:226,459
DA:227,459
DA:228,459
DA:231,32
DA:232,32
DA:233,32
DA:243,32
DA:244,32
DA:245,32
DA:250,32
DA:251,91
DA:252,91
DA:253,91
DA:254,91
DA:255,91
DA:256,91
DA:258,91
DA:259,91
DA:261,153
DA:262,62
DA:263,62
DA:265,91
DA:266,91
DA:268,150
DA:269,59
DA:270,59
DA:272,91
DA:273,121
DA:274,121
DA:275,121
DA:276,88
DA:278,33
DA:280,121
DA:282,121
DA:283,121
DA:284,62
DA:285,62
DA:286,62
DA:287,0
DA:288,186
DA:289,124
DA:292,59
DA:293,59
DA:294,59
DA:295,59
DA:297,0
DA:300,91
DA:301,91
DA:303,32
DA:304,32
BRF:0
BRH:0
LF:204
LH:188
end_of_record
SF:/home/matthew/develop/personal/karva/crates/karva_core/src/discovery/visitor.rs
FN:28,_RNvMNtNtCs4RrqI5pJN37_10karva_core9discovery7visitorNtB2_25FunctionDefinitionVisitor3new
FN:144,_RNvNtNtCs4RrqI5pJN37_10karva_core9discovery7visitor13parsed_module
FN:113,_RNvNtNtCs4RrqI5pJN37_10karva_core9discovery7visitor8discover
FN:163,_RNvXs0_NtNtCs4RrqI5pJN37_10karva_core9discovery7visitorNtB5_24GeneratorFunctionVisitorNtNtNtCs2MsX7UgnjKW_15ruff_python_ast7visitor12source_order18SourceOrderVisitor10visit_expr
FN:51,_RNvXs_NtNtCs4RrqI5pJN37_10karva_core9discovery7visitorNtB4_25FunctionDefinitionVisitorNtNtNtCs2MsX7UgnjKW_15ruff_python_ast7visitor12source_order18SourceOrderVisitor10visit_stmt
FN:35,_RNCNvMNtNtCs4RrqI5pJN37_10karva_core9discovery7visitorNtB4_25FunctionDefinitionVisitor3new0B8_
FN:28,_RNvMNtNtCs1eKvc9ZrgUW_10karva_core9discovery7visitorNtB2_25FunctionDefinitionVisitor3new
FN:144,_RNvNtNtCs1eKvc9ZrgUW_10karva_core9discovery7visitor13parsed_module
FN:113,_RNvNtNtCs1eKvc9ZrgUW_10karva_core9discovery7visitor8discover
FN:163,_RNvXs0_NtNtCs1eKvc9ZrgUW_10karva_core9discovery7visitorNtB5_24GeneratorFunctionVisitorNtNtNtCs2MsX7UgnjKW_15ruff_python_ast7visitor12source_order18SourceOrderVisitor10visit_expr
FN:51,_RNvXs_NtNtCs1eKvc9ZrgUW_10karva_core9discovery7visitorNtB4_25FunctionDefinitionVisitorNtNtNtCs2MsX7UgnjKW_15ruff_python_ast7visitor12source_order18SourceOrderVisitor10visit_stmt
FN:35,_RNCNvMNtNtCs1eKvc9ZrgUW_10karva_core9discovery7visitorNtB4_25FunctionDefinitionVisitor3new0B8_
FNDA:179,_RNvMNtNtCs4RrqI5pJN37_10karva_core9discovery7visitorNtB2_25FunctionDefinitionVisitor3new
FNDA:177,_RNvNtNtCs4RrqI5pJN37_10karva_core9discovery7visitor13parsed_module
FNDA:179,_RNvNtNtCs4RrqI5pJN37_10karva_core9discovery7visitor8discover
FNDA:168,_RNvXs0_NtNtCs4RrqI5pJN37_10karva_core9discovery7visitorNtB5_24GeneratorFunctionVisitorNtNtNtCs2MsX7UgnjKW_15ruff_python_ast7visitor12source_order18SourceOrderVisitor10visit_expr
FNDA:1006,_RNvXs_NtNtCs4RrqI5pJN37_10karva_core9discovery7visitorNtB4_25FunctionDefinitionVisitorNtNtNtCs2MsX7UgnjKW_15ruff_python_ast7visitor12source_order18SourceOrderVisitor10visit_stmt
FNDA:2,_RNCNvMNtNtCs4RrqI5pJN37_10karva_core9discovery7visitorNtB4_25FunctionDefinitionVisitor3new0B8_
FNDA:126,_RNvMNtNtCs1eKvc9ZrgUW_10karva_core9discovery7visitorNtB2_25FunctionDefinitionVisitor3new
FNDA:125,_RNvNtNtCs1eKvc9ZrgUW_10karva_core9discovery7visitor13parsed_module
FNDA:126,_RNvNtNtCs1eKvc9ZrgUW_10karva_core9discovery7visitor8discover
FNDA:86,_RNvXs0_NtNtCs1eKvc9ZrgUW_10karva_core9discovery7visitorNtB5_24GeneratorFunctionVisitorNtNtNtCs2MsX7UgnjKW_15ruff_python_ast7visitor12source_order18SourceOrderVisitor10visit_expr
FNDA:387,_RNvXs_NtNtCs1eKvc9ZrgUW_10karva_core9discovery7visitorNtB4_25FunctionDefinitionVisitorNtNtNtCs2MsX7UgnjKW_15ruff_python_ast7visitor12source_order18SourceOrderVisitor10visit_stmt
FNDA:1,_RNCNvMNtNtCs1eKvc9ZrgUW_10karva_core9discovery7visitorNtB4_25FunctionDefinitionVisitor3new0B8_
FNF:6
FNH:6
DA:28,305
DA:29,305
DA:30,305
DA:31,305
DA:32,305
DA:33,305
DA:34,305
DA:35,305
DA:37,302
DA:38,302
DA:39,302
DA:40,302
DA:41,302
DA:42,302
DA:43,302
DA:44,302
DA:45,302
DA:46,302
DA:47,305
DA:51,1393
DA:52,1393
DA:54,489
DA:55,5
DA:56,484
DA:57,484
DA:58,484
DA:59,187
DA:61,187
DA:63,187
DA:65,187
DA:66,187
DA:67,187
DA:68,187
DA:69,187
DA:70,187
DA:72,186
DA:73,0
DA:74,1
DA:75,1
DA:76,1
DA:77,1
DA:78,1
DA:79,1
DA:80,1
DA:82,297
DA:83,297
DA:84,297
DA:85,297
DA:87,282
DA:88,282
DA:89,282
DA:90,282
DA:91,282
DA:92,282
DA:93,282
DA:94,282
DA:95,282
DA:96,15
DA:97,484
DA:99,484
DA:100,484
DA:101,904
DA:103,904
DA:104,1393
DA:113,305
DA:114,305
DA:115,305
DA:116,305
DA:117,305
DA:118,305
DA:119,302
DA:120,3
DA:121,3
DA:122,3
DA:123,3
DA:124,3
DA:125,3
DA:126,3
DA:127,3
DA:128,3
DA:132,302
DA:133,302
DA:135,302
DA:136,302
DA:137,302
DA:138,302
DA:139,302
DA:140,302
DA:141,302
DA:142,305
DA:144,302
DA:145,302
DA:146,302
DA:147,302
DA:148,302
DA:149,302
DA:150,302
DA:152,302
DA:153,302
DA:154,302
DA:155,302
DA:163,254
DA:164,254
DA:165,28
DA:166,226
DA:167,254
BRF:0
BRH:0
LF:107
LH:106
end_of_record
SF:/home/matthew/develop/personal/karva/crates/karva_core/src/extensions/fixtures/builtins/temp_path.rs
FN:14,_RNvNtNtNtNtCs4RrqI5pJN37_10karva_core10extensions8fixtures8builtins9temp_path15create_temp_dir
FN:4,_RNvNtNtNtNtCs4RrqI5pJN37_10karva_core10extensions8fixtures8builtins9temp_path25is_temp_path_fixture_name
FN:14,_RNvNtNtNtNtCs1eKvc9ZrgUW_10karva_core10extensions8fixtures8builtins9temp_path15create_temp_dir
FN:4,_RNvNtNtNtNtCs1eKvc9ZrgUW_10karva_core10extensions8fixtures8builtins9temp_path25is_temp_path_fixture_name
FNDA:3,_RNvNtNtNtNtCs4RrqI5pJN37_10karva_core10extensions8fixtures8builtins9temp_path15create_temp_dir
FNDA:120,_RNvNtNtNtNtCs4RrqI5pJN37_10karva_core10extensions8fixtures8builtins9temp_path25is_temp_path_fixture_name
FNDA:0,_RNvNtNtNtNtCs1eKvc9ZrgUW_10karva_core10extensions8fixtures8builtins9temp_path15create_temp_dir
FNDA:21,_RNvNtNtNtNtCs1eKvc9ZrgUW_10karva_core10extensions8fixtures8builtins9temp_path25is_temp_path_fixture_name
FNF:2
FNH:2
DA:4,141
DA:5,141
DA:7,141
DA:9,140
DA:10,138
DA:12,141
DA:14,3
DA:15,3
DA:17,3
DA:19,3
DA:21,3
DA:22,3
DA:23,3
DA:25,3
DA:26,3
BRF:0
BRH:0
LF:15
LH:15
end_of_record
SF:/home/matthew/develop/personal/karva/crates/karva_core/src/extensions/fixtures/finalizer.rs
FN:10,_RNvMNtNtNtCs4RrqI5pJN37_10karva_core10extensions8fixtures9finalizerNtB2_10Finalizers3new
FN:18,_RNvMNtNtNtCs4RrqI5pJN37_10karva_core10extensions8fixtures9finalizerNtB2_10Finalizers3run
FN:14,_RNvMNtNtNtCs4RrqI5pJN37_10karva_core10extensions8fixtures9finalizerNtB2_10Finalizers6update
FN:43,_RNvMs_NtNtNtCs4RrqI5pJN37_10karva_core10extensions8fixtures9finalizerNtB4_9Finalizer3new
FN:50,_RNvMs_NtNtNtCs4RrqI5pJN37_10karva_core10extensions8fixtures9finalizerNtB4_9Finalizer3run
FN:74,_RNvNtNtNtNtCs1eKvc9ZrgUW_10karva_core10extensions8fixtures9finalizer5testss_33test_fixture_generator_two_yields
FN:102,_RNvNtNtNtNtCs1eKvc9ZrgUW_10karva_core10extensions8fixtures9finalizer5testss_39test_fixture_generator_fail_in_teardown
FN:10,_RNvMNtNtNtCs1eKvc9ZrgUW_10karva_core10extensions8fixtures9finalizerNtB2_10Finalizers3new
FN:18,_RNvMNtNtNtCs1eKvc9ZrgUW_10karva_core10extensions8fixtures9finalizerNtB2_10Finalizers3run
FN:14,_RNvMNtNtNtCs1eKvc9ZrgUW_10karva_core10extensions8fixtures9finalizerNtB2_10Finalizers6update
FN:43,_RNvMs_NtNtNtCs1eKvc9ZrgUW_10karva_core10extensions8fixtures9finalizerNtB4_9Finalizer3new
FN:50,_RNvMs_NtNtNtCs1eKvc9ZrgUW_10karva_core10extensions8fixtures9finalizerNtB4_9Finalizer3run
FNDA:852,_RNvMNtNtNtCs4RrqI5pJN37_10karva_core10extensions8fixtures9finalizerNtB2_10Finalizers3new
FNDA:759,_RNvMNtNtNtCs4RrqI5pJN37_10karva_core10extensions8fixtures9finalizerNtB2_10Finalizers3run
FNDA:852,_RNvMNtNtNtCs4RrqI5pJN37_10karva_core10extensions8fixtures9finalizerNtB2_10Finalizers6update
FNDA:33,_RNvMs_NtNtNtCs4RrqI5pJN37_10karva_core10extensions8fixtures9finalizerNtB4_9Finalizer3new
FNDA:33,_RNvMs_NtNtNtCs4RrqI5pJN37_10karva_core10extensions8fixtures9finalizerNtB4_9Finalizer3run
FNDA:1,_RNvNtNtNtNtCs1eKvc9ZrgUW_10karva_core10extensions8fixtures9finalizer5testss_33test_fixture_generator_two_yields
FNDA:1,_RNvNtNtNtNtCs1eKvc9ZrgUW_10karva_core10extensions8fixtures9finalizer5testss_39test_fixture_generator_fail_in_teardown
FNDA:15,_RNvMNtNtNtCs1eKvc9ZrgUW_10karva_core10extensions8fixtures9finalizerNtB2_10Finalizers3new
FNDA:8,_RNvMNtNtNtCs1eKvc9ZrgUW_10karva_core10extensions8fixtures9finalizerNtB2_10Finalizers3run
FNDA:10,_RNvMNtNtNtCs1eKvc9ZrgUW_10karva_core10extensions8fixtures9finalizerNtB2_10Finalizers6update
FNDA:2,_RNvMs_NtNtNtCs1eKvc9ZrgUW_10karva_core10extensions8fixtures9finalizerNtB4_9Finalizer3new
FNDA:2,_RNvMs_NtNtNtCs1eKvc9ZrgUW_10karva_core10extensions8fixtures9finalizerNtB4_9Finalizer3run
FNF:7
FNH:7
DA:10,867
DA:11,867
DA:12,867
DA:14,862
DA:15,862
DA:16,862
DA:18,767
DA:19,767
DA:20,802
DA:21,35
DA:22,2
DA:23,33
DA:25,767
DA:26,767
DA:43,35
DA:44,35
DA:45,35
DA:46,35
DA:47,35
DA:48,35
DA:50,35
DA:51,35
DA:52,35
DA:53,1
DA:54,1
DA:55,1
DA:56,1
DA:57,1
DA:58,1
DA:59,1
DA:60,1
DA:61,1
DA:63,35
DA:74,1
DA:75,1
DA:77,1
DA:78,1
DA:79,1
DA:80,1
DA:81,1
DA:82,1
DA:83,1
DA:84,1
DA:85,1
DA:86,1
DA:87,1
DA:90,1
DA:92,1
DA:93,1
DA:94,1
DA:95,1
DA:96,1
DA:97,1
DA:98,1
DA:99,1
DA:102,1
DA:103,1
DA:105,1
DA:106,1
DA:107,1
DA:108,1
DA:109,1
DA:110,1
DA:111,1
DA:112,1
DA:113,1
DA:114,1
DA:115,1
DA:118,1
DA:120,1
DA:121,1
DA:122,1
DA:123,1
DA:124,1
DA:125,1
DA:126,1
DA:127,1
DA:128,1
BRF:0
BRH:0
LF:78
LH:78
end_of_record
SF:/home/matthew/develop/personal/karva/crates/karva_core/src/extensions/fixtures/manager.rs
FN:40,_RNvMNtNtNtCs4RrqI5pJN37_10karva_core10extensions8fixtures7managerNtB2_17FixtureCollection11get_fixture
FN:24,_RNvMNtNtNtCs4RrqI5pJN37_10karva_core10extensions8fixtures7managerNtB2_17FixtureCollection14insert_fixture
FN:32,_RNvMNtNtNtCs4RrqI5pJN37_10karva_core10extensions8fixtures7managerNtB2_17FixtureCollection16insert_finalizer
FN:65,_RNvMNtNtNtCs4RrqI5pJN37_10karva_core10extensions8fixtures7managerNtB2_17FixtureCollection5reset
FN:278,_RNvMs_NtNtNtCs4RrqI5pJN37_10karva_core10extensions8fixtures7managerNtB4_14FixtureManager11from_parent
FN:138,_RNvMs_NtNtNtCs4RrqI5pJN37_10karva_core10extensions8fixtures7managerNtB4_14FixtureManager11has_fixture
FN:263,_RNvMs_NtNtNtCs4RrqI5pJN37_10karva_core10extensions8fixtures7managerNtB4_14FixtureManager12add_fixtures
FN:165,_RNvMs_NtNtNtCs4RrqI5pJN37_10karva_core10extensions8fixtures7managerNtB4_14FixtureManager14insert_fixture
FN:301,_RNvMs_NtNtNtCs4RrqI5pJN37_10karva_core10extensions8fixtures7managerNtB4_14FixtureManager14reset_fixtures
FN:174,_RNvMs_NtNtNtCs4RrqI5pJN37_10karva_core10extensions8fixtures7managerNtB4_14FixtureManager16insert_finalizer
FN:109,_RNvMs_NtNtNtCs4RrqI5pJN37_10karva_core10extensions8fixtures7managerNtB4_14FixtureManager17clear_diagnostics
FN:150,_RNvMs_NtNtNtCs4RrqI5pJN37_10karva_core10extensions8fixtures7managerNtB4_14FixtureManager21get_fixture_with_name
FN:187,_RNvMs_NtNtNtCs4RrqI5pJN37_10karva_core10extensions8fixtures7managerNtB4_14FixtureManager27ensure_fixture_dependencies
FN:100,_RNvMs_NtNtNtCs4RrqI5pJN37_10karva_core10extensions8fixtures7managerNtB4_14FixtureManager3new
FN:48,_RNCNCNvMNtNtNtCs4RrqI5pJN37_10karva_core10extensions8fixtures7managerNtB6_17FixtureCollection11get_fixture00Bc_
FN:46,_RNCNvMNtNtNtCs4RrqI5pJN37_10karva_core10extensions8fixtures7managerNtB4_17FixtureCollection11get_fixture0Ba_
FN:144,_RNCNvMs_NtNtNtCs4RrqI5pJN37_10karva_core10extensions8fixtures7managerNtB6_14FixtureManager11has_fixtures_0Bc_
FN:48,_RNCNCNvMNtNtNtCs1eKvc9ZrgUW_10karva_core10extensions8fixtures7managerNtB6_17FixtureCollection11get_fixture00Bc_
FN:46,_RNCNvMNtNtNtCs1eKvc9ZrgUW_10karva_core10extensions8fixtures7managerNtB4_17FixtureCollection11get_fixture0Ba_
FN:74,_RNCNvMNtNtNtCs1eKvc9ZrgUW_10karva_core10extensions8fixtures7managerNtB4_17FixtureCollection26contains_fixture_with_name0Ba_
FN:144,_RNCNvMs_NtNtNtCs1eKvc9ZrgUW_10karva_core10extensions8fixtures7managerNtB6_14FixtureManager11has_fixtures_0Bc_
FN:135,_RNCNvMs_NtNtNtCs1eKvc9ZrgUW_10karva_core10extensions8fixtures7managerNtB6_14FixtureManager26contains_fixture_with_name0Bc_
FN:124,_RNCNvMs_NtNtNtCs1eKvc9ZrgUW_10karva_core10extensions8fixtures7managerNtB6_14FixtureManager35contains_fixture_with_name_at_scope0Bc_
FN:1453,_RNvNtNtNtNtCs1eKvc9ZrgUW_10karva_core10extensions8fixtures7manager5testss_36test_fixture_manager_reset_functions
FN:1131,_RNvNtNtNtNtCs1eKvc9ZrgUW_10karva_core10extensions8fixtures7manager5testss_45test_fixture_manager_deep_nesting_five_levels
FN:1265,_RNvNtNtNtNtCs1eKvc9ZrgUW_10karva_core10extensions8fixtures7manager5testss_47test_fixture_manager_multiple_tests_same_module
FN:896,_RNvNtNtNtNtCs1eKvc9ZrgUW_10karva_core10extensions8fixtures7manager5testss_49test_fixture_manager_multiple_packages_same_level
FN:315,_RNvNtNtNtNtCs1eKvc9ZrgUW_10karva_core10extensions8fixtures7manager5testss_53test_fixture_manager_add_fixtures_impl_one_dependency
FN:359,_RNvNtNtNtNtCs1eKvc9ZrgUW_10karva_core10extensions8fixtures7manager5testss_55test_fixture_manager_add_fixtures_impl_two_dependencies
FN:999,_RNvNtNtNtNtCs1eKvc9ZrgUW_10karva_core10extensions8fixtures7manager5testss_56test_fixture_manager_fixture_override_in_nested_packages
FN:465,_RNvNtNtNtNtCs1eKvc9ZrgUW_10karva_core10extensions8fixtures7manager5testss_57test_fixture_manager_add_fixtures_impl_three_dependencies
FN:1069,_RNvNtNtNtNtCs1eKvc9ZrgUW_10karva_core10extensions8fixtures7manager5testss_59test_fixture_manager_multiple_dependent_fixtures_same_scope
FN:415,_RNvNtNtNtNtCs1eKvc9ZrgUW_10karva_core10extensions8fixtures7manager5testss_65test_fixture_manager_add_fixtures_impl_two_dependencies_in_parent
FN:783,_RNvNtNtNtNtCs1eKvc9ZrgUW_10karva_core10extensions8fixtures7manager5testss_67test_fixture_manager_complex_nested_structure_with_session_fixtures
FN:1336,_RNvNtNtNtNtCs1eKvc9ZrgUW_10karva_core10extensions8fixtures7manager5testss_68test_fixture_manager_complex_dependency_chain_with_multiple_branches
FN:534,_RNvNtNtNtNtCs1eKvc9ZrgUW_10karva_core10extensions8fixtures7manager5testss_72test_fixture_manager_add_fixtures_impl_two_dependencies_different_scopes
FN:613,_RNvNtNtNtNtCs1eKvc9ZrgUW_10karva_core10extensions8fixtures7manager5testss_74test_fixture_manager_add_fixtures_impl_three_dependencies_different_scopes
FN:707,_RNvNtNtNtNtCs1eKvc9ZrgUW_10karva_core10extensions8fixtures7manager5testss_99test_fixture_manager_add_fixtures_impl_three_dependencies_different_scopes_with_fixture_in_function
FN:40,_RNvMNtNtNtCs1eKvc9ZrgUW_10karva_core10extensions8fixtures7managerNtB2_17FixtureCollection11get_fixture
FN:24,_RNvMNtNtNtCs1eKvc9ZrgUW_10karva_core10extensions8fixtures7managerNtB2_17FixtureCollection14insert_fixture
FN:32,_RNvMNtNtNtCs1eKvc9ZrgUW_10karva_core10extensions8fixtures7managerNtB2_17FixtureCollection16insert_finalizer
FN:71,_RNvMNtNtNtCs1eKvc9ZrgUW_10karva_core10extensions8fixtures7managerNtB2_17FixtureCollection26contains_fixture_with_name
FN:65,_RNvMNtNtNtCs1eKvc9ZrgUW_10karva_core10extensions8fixtures7managerNtB2_17FixtureCollection5reset
FN:278,_RNvMs_NtNtNtCs1eKvc9ZrgUW_10karva_core10extensions8fixtures7managerNtB4_14FixtureManager11from_parent
FN:138,_RNvMs_NtNtNtCs1eKvc9ZrgUW_10karva_core10extensions8fixtures7managerNtB4_14FixtureManager11has_fixture
FN:263,_RNvMs_NtNtNtCs1eKvc9ZrgUW_10karva_core10extensions8fixtures7managerNtB4_14FixtureManager12add_fixtures
FN:165,_RNvMs_NtNtNtCs1eKvc9ZrgUW_10karva_core10extensions8fixtures7managerNtB4_14FixtureManager14insert_fixture
FN:301,_RNvMs_NtNtNtCs1eKvc9ZrgUW_10karva_core10extensions8fixtures7managerNtB4_14FixtureManager14reset_fixtures
FN:174,_RNvMs_NtNtNtCs1eKvc9ZrgUW_10karva_core10extensions8fixtures7managerNtB4_14FixtureManager16insert_finalizer
FN:109,_RNvMs_NtNtNtCs1eKvc9ZrgUW_10karva_core10extensions8fixtures7managerNtB4_14FixtureManager17clear_diagnostics
FN:150,_RNvMs_NtNtNtCs1eKvc9ZrgUW_10karva_core10extensions8fixtures7managerNtB4_14FixtureManager21get_fixture_with_name
FN:129,_RNvMs_NtNtNtCs1eKvc9ZrgUW_10karva_core10extensions8fixtures7managerNtB4_14FixtureManager26contains_fixture_with_name
FN:187,_RNvMs_NtNtNtCs1eKvc9ZrgUW_10karva_core10extensions8fixtures7managerNtB4_14FixtureManager27ensure_fixture_dependencies
FN:114,_RNvMs_NtNtNtCs1eKvc9ZrgUW_10karva_core10extensions8fixtures7managerNtB4_14FixtureManager35contains_fixture_with_name_at_scope
FN:100,_RNvMs_NtNtNtCs1eKvc9ZrgUW_10karva_core10extensions8fixtures7managerNtB4_14FixtureManager3new
FN:1487,_RNCNvNtNtNtNtCs1eKvc9ZrgUW_10karva_core10extensions8fixtures7manager5testss_36test_fixture_manager_reset_functions0Bb_
FN:1495,_RNCNvNtNtNtNtCs1eKvc9ZrgUW_10karva_core10extensions8fixtures7manager5testss_36test_fixture_manager_reset_functionss_0Bb_
FN:1193,_RNCNvNtNtNtNtCs1eKvc9ZrgUW_10karva_core10extensions8fixtures7manager5testss_45test_fixture_manager_deep_nesting_five_levels0Bb_
FN:1204,_RNCNvNtNtNtNtCs1eKvc9ZrgUW_10karva_core10extensions8fixtures7manager5testss_45test_fixture_manager_deep_nesting_five_levelss_0Bb_
FN:1294,_RNCNvNtNtNtNtCs1eKvc9ZrgUW_10karva_core10extensions8fixtures7manager5testss_47test_fixture_manager_multiple_tests_same_module0Bb_
FN:1303,_RNCNvNtNtNtNtCs1eKvc9ZrgUW_10karva_core10extensions8fixtures7manager5testss_47test_fixture_manager_multiple_tests_same_modules_0Bb_
FN:943,_RNCNvNtNtNtNtCs1eKvc9ZrgUW_10karva_core10extensions8fixtures7manager5testss_49test_fixture_manager_multiple_packages_same_level0Bb_
FN:955,_RNCNvNtNtNtNtCs1eKvc9ZrgUW_10karva_core10extensions8fixtures7manager5testss_49test_fixture_manager_multiple_packages_same_levels_0Bb_
FN:335,_RNCNvNtNtNtNtCs1eKvc9ZrgUW_10karva_core10extensions8fixtures7manager5testss_53test_fixture_manager_add_fixtures_impl_one_dependency0Bb_
FN:343,_RNCNvNtNtNtNtCs1eKvc9ZrgUW_10karva_core10extensions8fixtures7manager5testss_53test_fixture_manager_add_fixtures_impl_one_dependencys_0Bb_
FN:388,_RNCNvNtNtNtNtCs1eKvc9ZrgUW_10karva_core10extensions8fixtures7manager5testss_55test_fixture_manager_add_fixtures_impl_two_dependencies0Bb_
FN:398,_RNCNvNtNtNtNtCs1eKvc9ZrgUW_10karva_core10extensions8fixtures7manager5testss_55test_fixture_manager_add_fixtures_impl_two_dependenciess_0Bb_
FN:1033,_RNCNvNtNtNtNtCs1eKvc9ZrgUW_10karva_core10extensions8fixtures7manager5testss_56test_fixture_manager_fixture_override_in_nested_packages0Bb_
FN:1044,_RNCNvNtNtNtNtCs1eKvc9ZrgUW_10karva_core10extensions8fixtures7manager5testss_56test_fixture_manager_fixture_override_in_nested_packagess_0Bb_
FN:504,_RNCNvNtNtNtNtCs1eKvc9ZrgUW_10karva_core10extensions8fixtures7manager5testss_57test_fixture_manager_add_fixtures_impl_three_dependencies0Bb_
FN:516,_RNCNvNtNtNtNtCs1eKvc9ZrgUW_10karva_core10extensions8fixtures7manager5testss_57test_fixture_manager_add_fixtures_impl_three_dependenciess_0Bb_
FN:1100,_RNCNvNtNtNtNtCs1eKvc9ZrgUW_10karva_core10extensions8fixtures7manager5testss_59test_fixture_manager_multiple_dependent_fixtures_same_scope0Bb_
FN:1106,_RNCNvNtNtNtNtCs1eKvc9ZrgUW_10karva_core10extensions8fixtures7manager5testss_59test_fixture_manager_multiple_dependent_fixtures_same_scopes_0Bb_
FN:438,_RNCNvNtNtNtNtCs1eKvc9ZrgUW_10karva_core10extensions8fixtures7manager5testss_65test_fixture_manager_add_fixtures_impl_two_dependencies_in_parent0Bb_
FN:448,_RNCNvNtNtNtNtCs1eKvc9ZrgUW_10karva_core10extensions8fixtures7manager5testss_65test_fixture_manager_add_fixtures_impl_two_dependencies_in_parents_0Bb_
FN:831,_RNCNvNtNtNtNtCs1eKvc9ZrgUW_10karva_core10extensions8fixtures7manager5testss_67test_fixture_manager_complex_nested_structure_with_session_fixtures0Bb_
FN:840,_RNCNvNtNtNtNtCs1eKvc9ZrgUW_10karva_core10extensions8fixtures7manager5testss_67test_fixture_manager_complex_nested_structure_with_session_fixturess_0Bb_
FN:1379,_RNCNvNtNtNtNtCs1eKvc9ZrgUW_10karva_core10extensions8fixtures7manager5testss_68test_fixture_manager_complex_dependency_chain_with_multiple_branches0Bb_
FN:1385,_RNCNvNtNtNtNtCs1eKvc9ZrgUW_10karva_core10extensions8fixtures7manager5testss_68test_fixture_manager_complex_dependency_chain_with_multiple_branchess_0Bb_
FN:567,_RNCNvNtNtNtNtCs1eKvc9ZrgUW_10karva_core10extensions8fixtures7manager5testss_72test_fixture_manager_add_fixtures_impl_two_dependencies_different_scopes0Bb_
FN:577,_RNCNvNtNtNtNtCs1eKvc9ZrgUW_10karva_core10extensions8fixtures7manager5testss_72test_fixture_manager_add_fixtures_impl_two_dependencies_different_scopess_0Bb_
FN:652,_RNCNvNtNtNtNtCs1eKvc9ZrgUW_10karva_core10extensions8fixtures7manager5testss_74test_fixture_manager_add_fixtures_impl_three_dependencies_different_scopes0Bb_
FN:664,_RNCNvNtNtNtNtCs1eKvc9ZrgUW_10karva_core10extensions8fixtures7manager5testss_74test_fixture_manager_add_fixtures_impl_three_dependencies_different_scopess_0Bb_
FN:736,_RNCNvNtNtNtNtCs1eKvc9ZrgUW_10karva_core10extensions8fixtures7manager5testss_99test_fixture_manager_add_fixtures_impl_three_dependencies_different_scopes_with_fixture_in_function0Bb_
FN:746,_RNCNvNtNtNtNtCs1eKvc9ZrgUW_10karva_core10extensions8fixtures7manager5testss_99test_fixture_manager_add_fixtures_impl_three_dependencies_different_scopes_with_fixture_in_functions_0Bb_
FNDA:251,_RNvMNtNtNtCs4RrqI5pJN37_10karva_core10extensions8fixtures7managerNtB2_17FixtureCollection11get_fixture
FNDA:124,_RNvMNtNtNtCs4RrqI5pJN37_10karva_core10extensions8fixtures7managerNtB2_17FixtureCollection14insert_fixture
FNDA:33,_RNvMNtNtNtCs4RrqI5pJN37_10karva_core10extensions8fixtures7managerNtB2_17FixtureCollection16insert_finalizer
FNDA:852,_RNvMNtNtNtCs4RrqI5pJN37_10karva_core10extensions8fixtures7managerNtB2_17FixtureCollection5reset
FNDA:697,_RNvMs_NtNtNtCs4RrqI5pJN37_10karva_core10extensions8fixtures7managerNtB4_14FixtureManager11from_parent
FNDA:683,_RNvMs_NtNtNtCs4RrqI5pJN37_10karva_core10extensions8fixtures7managerNtB4_14FixtureManager11has_fixture
FNDA:1819,_RNvMs_NtNtNtCs4RrqI5pJN37_10karva_core10extensions8fixtures7managerNtB4_14FixtureManager12add_fixtures
FNDA:124,_RNvMs_NtNtNtCs4RrqI5pJN37_10karva_core10extensions8fixtures7managerNtB4_14FixtureManager14insert_fixture
FNDA:852,_RNvMs_NtNtNtCs4RrqI5pJN37_10karva_core10extensions8fixtures7managerNtB4_14FixtureManager14reset_fixtures
FNDA:33,_RNvMs_NtNtNtCs4RrqI5pJN37_10karva_core10extensions8fixtures7managerNtB4_14FixtureManager16insert_finalizer
FNDA:852,_RNvMs_NtNtNtCs4RrqI5pJN37_10karva_core10extensions8fixtures7managerNtB4_14FixtureManager17clear_diagnostics
FNDA:251,_RNvMs_NtNtNtCs4RrqI5pJN37_10karva_core10extensions8fixtures7managerNtB4_14FixtureManager21get_fixture_with_name
FNDA:169,_RNvMs_NtNtNtCs4RrqI5pJN37_10karva_core10extensions8fixtures7managerNtB4_14FixtureManager27ensure_fixture_dependencies
FNDA:852,_RNvMs_NtNtNtCs4RrqI5pJN37_10karva_core10extensions8fixtures7managerNtB4_14FixtureManager3new
FNDA:21,_RNCNCNvMNtNtNtCs4RrqI5pJN37_10karva_core10extensions8fixtures7managerNtB6_17FixtureCollection11get_fixture00Bc_
FNDA:172,_RNCNvMNtNtNtCs4RrqI5pJN37_10karva_core10extensions8fixtures7managerNtB4_17FixtureCollection11get_fixture0Ba_
FNDA:514,_RNCNvMs_NtNtNtCs4RrqI5pJN37_10karva_core10extensions8fixtures7managerNtB6_14FixtureManager11has_fixtures_0Bc_
FNDA:31,_RNCNCNvMNtNtNtCs1eKvc9ZrgUW_10karva_core10extensions8fixtures7managerNtB6_17FixtureCollection11get_fixture00Bc_
FNDA:42,_RNCNvMNtNtNtCs1eKvc9ZrgUW_10karva_core10extensions8fixtures7managerNtB4_17FixtureCollection11get_fixture0Ba_
FNDA:63,_RNCNvMNtNtNtCs1eKvc9ZrgUW_10karva_core10extensions8fixtures7managerNtB4_17FixtureCollection26contains_fixture_with_name0Ba_
FNDA:68,_RNCNvMs_NtNtNtCs1eKvc9ZrgUW_10karva_core10extensions8fixtures7managerNtB6_14FixtureManager11has_fixtures_0Bc_
FNDA:0,_RNCNvMs_NtNtNtCs1eKvc9ZrgUW_10karva_core10extensions8fixtures7managerNtB6_14FixtureManager26contains_fixture_with_name0Bc_
FNDA:0,_RNCNvMs_NtNtNtCs1eKvc9ZrgUW_10karva_core10extensions8fixtures7managerNtB6_14FixtureManager35contains_fixture_with_name_at_scope0Bc_
FNDA:1,_RNvNtNtNtNtCs1eKvc9ZrgUW_10karva_core10extensions8fixtures7manager5testss_36test_fixture_manager_reset_functions
FNDA:1,_RNvNtNtNtNtCs1eKvc9ZrgUW_10karva_core10extensions8fixtures7manager5testss_45test_fixture_manager_deep_nesting_five_levels
FNDA:1,_RNvNtNtNtNtCs1eKvc9ZrgUW_10karva_core10extensions8fixtures7manager5testss_47test_fixture_manager_multiple_tests_same_module
FNDA:1,_RNvNtNtNtNtCs1eKvc9ZrgUW_10karva_core10extensions8fixtures7manager5testss_49test_fixture_manager_multiple_packages_same_level
FNDA:1,_RNvNtNtNtNtCs1eKvc9ZrgUW_10karva_core10extensions8fixtures7manager5testss_53test_fixture_manager_add_fixtures_impl_one_dependency
FNDA:1,_RNvNtNtNtNtCs1eKvc9ZrgUW_10karva_core10extensions8fixtures7manager5testss_55test_fixture_manager_add_fixtures_impl_two_dependencies
FNDA:1,_RNvNtNtNtNtCs1eKvc9ZrgUW_10karva_core10extensions8fixtures7manager5testss_56test_fixture_manager_fixture_override_in_nested_packages
FNDA:1,_RNvNtNtNtNtCs1eKvc9ZrgUW_10karva_core10extensions8fixtures7manager5testss_57test_fixture_manager_add_fixtures_impl_three_dependencies
FNDA:1,_RNvNtNtNtNtCs1eKvc9ZrgUW_10karva_core10extensions8fixtures7manager5testss_59test_fixture_manager_multiple_dependent_fixtures_same_scope
FNDA:1,_RNvNtNtNtNtCs1eKvc9ZrgUW_10karva_core10extensions8fixtures7manager5testss_65test_fixture_manager_add_fixtures_impl_two_dependencies_in_parent
FNDA:1,_RNvNtNtNtNtCs1eKvc9ZrgUW_10karva_core10extensions8fixtures7manager5testss_67test_fixture_manager_complex_nested_structure_with_session_fixtures
FNDA:1,_RNvNtNtNtNtCs1eKvc9ZrgUW_10karva_core10extensions8fixtures7manager5testss_68test_fixture_manager_complex_dependency_chain_with_multiple_branches
FNDA:1,_RNvNtNtNtNtCs1eKvc9ZrgUW_10karva_core10extensions8fixtures7manager5testss_72test_fixture_manager_add_fixtures_impl_two_dependencies_different_scopes
FNDA:1,_RNvNtNtNtNtCs1eKvc9ZrgUW_10karva_core10extensions8fixtures7manager5testss_74test_fixture_manager_add_fixtures_impl_three_dependencies_different_scopes
FNDA:1,_RNvNtNtNtNtCs1eKvc9ZrgUW_10karva_core10extensions8fixtures7manager5testss_99test_fixture_manager_add_fixtures_impl_three_dependencies_different_scopes_with_fixture_in_function
FNDA:54,_RNvMNtNtNtCs1eKvc9ZrgUW_10karva_core10extensions8fixtures7managerNtB2_17FixtureCollection11get_fixture
FNDA:49,_RNvMNtNtNtCs1eKvc9ZrgUW_10karva_core10extensions8fixtures7managerNtB2_17FixtureCollection14insert_fixture
FNDA:2,_RNvMNtNtNtCs1eKvc9ZrgUW_10karva_core10extensions8fixtures7managerNtB2_17FixtureCollection16insert_finalizer
FNDA:50,_RNvMNtNtNtCs1eKvc9ZrgUW_10karva_core10extensions8fixtures7managerNtB2_17FixtureCollection26contains_fixture_with_name
FNDA:15,_RNvMNtNtNtCs1eKvc9ZrgUW_10karva_core10extensions8fixtures7managerNtB2_17FixtureCollection5reset
FNDA:8,_RNvMs_NtNtNtCs1eKvc9ZrgUW_10karva_core10extensions8fixtures7managerNtB4_14FixtureManager11from_parent
FNDA:139,_RNvMs_NtNtNtCs1eKvc9ZrgUW_10karva_core10extensions8fixtures7managerNtB4_14FixtureManager11has_fixture
FNDA:55,_RNvMs_NtNtNtCs1eKvc9ZrgUW_10karva_core10extensions8fixtures7managerNtB4_14FixtureManager12add_fixtures
FNDA:49,_RNvMs_NtNtNtCs1eKvc9ZrgUW_10karva_core10extensions8fixtures7managerNtB4_14FixtureManager14insert_fixture
FNDA:15,_RNvMs_NtNtNtCs1eKvc9ZrgUW_10karva_core10extensions8fixtures7managerNtB4_14FixtureManager14reset_fixtures
FNDA:2,_RNvMs_NtNtNtCs1eKvc9ZrgUW_10karva_core10extensions8fixtures7managerNtB4_14FixtureManager16insert_finalizer
FNDA:10,_RNvMs_NtNtNtCs1eKvc9ZrgUW_10karva_core10extensions8fixtures7managerNtB4_14FixtureManager17clear_diagnostics
FNDA:54,_RNvMs_NtNtNtCs1eKvc9ZrgUW_10karva_core10extensions8fixtures7managerNtB4_14FixtureManager21get_fixture_with_name
FNDA:41,_RNvMs_NtNtNtCs1eKvc9ZrgUW_10karva_core10extensions8fixtures7managerNtB4_14FixtureManager26contains_fixture_with_name
FNDA:71,_RNvMs_NtNtNtCs1eKvc9ZrgUW_10karva_core10extensions8fixtures7managerNtB4_14FixtureManager27ensure_fixture_dependencies
FNDA:9,_RNvMs_NtNtNtCs1eKvc9ZrgUW_10karva_core10extensions8fixtures7managerNtB4_14FixtureManager35contains_fixture_with_name_at_scope
FNDA:43,_RNvMs_NtNtNtCs1eKvc9ZrgUW_10karva_core10extensions8fixtures7managerNtB4_14FixtureManager3new
FNDA:1,_RNCNvNtNtNtNtCs1eKvc9ZrgUW_10karva_core10extensions8fixtures7manager5testss_36test_fixture_manager_reset_functions0Bb_
FNDA:1,_RNCNvNtNtNtNtCs1eKvc9ZrgUW_10karva_core10extensions8fixtures7manager5testss_36test_fixture_manager_reset_functionss_0Bb_
FNDA:1,_RNCNvNtNtNtNtCs1eKvc9ZrgUW_10karva_core10extensions8fixtures7manager5testss_45test_fixture_manager_deep_nesting_five_levels0Bb_
FNDA:1,_RNCNvNtNtNtNtCs1eKvc9ZrgUW_10karva_core10extensions8fixtures7manager5testss_45test_fixture_manager_deep_nesting_five_levelss_0Bb_
FNDA:1,_RNCNvNtNtNtNtCs1eKvc9ZrgUW_10karva_core10extensions8fixtures7manager5testss_47test_fixture_manager_multiple_tests_same_module0Bb_
FNDA:1,_RNCNvNtNtNtNtCs1eKvc9ZrgUW_10karva_core10extensions8fixtures7manager5testss_47test_fixture_manager_multiple_tests_same_modules_0Bb_
FNDA:1,_RNCNvNtNtNtNtCs1eKvc9ZrgUW_10karva_core10extensions8fixtures7manager5testss_49test_fixture_manager_multiple_packages_same_level0Bb_
FNDA:1,_RNCNvNtNtNtNtCs1eKvc9ZrgUW_10karva_core10extensions8fixtures7manager5testss_49test_fixture_manager_multiple_packages_same_levels_0Bb_
FNDA:1,_RNCNvNtNtNtNtCs1eKvc9ZrgUW_10karva_core10extensions8fixtures7manager5testss_53test_fixture_manager_add_fixtures_impl_one_dependency0Bb_
FNDA:1,_RNCNvNtNtNtNtCs1eKvc9ZrgUW_10karva_core10extensions8fixtures7manager5testss_53test_fixture_manager_add_fixtures_impl_one_dependencys_0Bb_
FNDA:1,_RNCNvNtNtNtNtCs1eKvc9ZrgUW_10karva_core10extensions8fixtures7manager5testss_55test_fixture_manager_add_fixtures_impl_two_dependencies0Bb_
FNDA:1,_RNCNvNtNtNtNtCs1eKvc9ZrgUW_10karva_core10extensions8fixtures7manager5testss_55test_fixture_manager_add_fixtures_impl_two_dependenciess_0Bb_
FNDA:1,_RNCNvNtNtNtNtCs1eKvc9ZrgUW_10karva_core10extensions8fixtures7manager5testss_56test_fixture_manager_fixture_override_in_nested_packages0Bb_
FNDA:1,_RNCNvNtNtNtNtCs1eKvc9ZrgUW_10karva_core10extensions8fixtures7manager5testss_56test_fixture_manager_fixture_override_in_nested_packagess_0Bb_
FNDA:1,_RNCNvNtNtNtNtCs1eKvc9ZrgUW_10karva_core10extensions8fixtures7manager5testss_57test_fixture_manager_add_fixtures_impl_three_dependencies0Bb_
FNDA:1,_RNCNvNtNtNtNtCs1eKvc9ZrgUW_10karva_core10extensions8fixtures7manager5testss_57test_fixture_manager_add_fixtures_impl_three_dependenciess_0Bb_
FNDA:1,_RNCNvNtNtNtNtCs1eKvc9ZrgUW_10karva_core10extensions8fixtures7manager5testss_59test_fixture_manager_multiple_dependent_fixtures_same_scope0Bb_
FNDA:1,_RNCNvNtNtNtNtCs1eKvc9ZrgUW_10karva_core10extensions8fixtures7manager5testss_59test_fixture_manager_multiple_dependent_fixtures_same_scopes_0Bb_
FNDA:1,_RNCNvNtNtNtNtCs1eKvc9ZrgUW_10karva_core10extensions8fixtures7manager5testss_65test_fixture_manager_add_fixtures_impl_two_dependencies_in_parent0Bb_
FNDA:1,_RNCNvNtNtNtNtCs1eKvc9ZrgUW_10karva_core10extensions8fixtures7manager5testss_65test_fixture_manager_add_fixtures_impl_two_dependencies_in_parents_0Bb_
FNDA:1,_RNCNvNtNtNtNtCs1eKvc9ZrgUW_10karva_core10extensions8fixtures7manager5testss_67test_fixture_manager_complex_nested_structure_with_session_fixtures0Bb_
FNDA:1,_RNCNvNtNtNtNtCs1eKvc9ZrgUW_10karva_core10extensions8fixtures7manager5testss_67test_fixture_manager_complex_nested_structure_with_session_fixturess_0Bb_
FNDA:1,_RNCNvNtNtNtNtCs1eKvc9ZrgUW_10karva_core10extensions8fixtures7manager5testss_68test_fixture_manager_complex_dependency_chain_with_multiple_branches0Bb_
FNDA:1,_RNCNvNtNtNtNtCs1eKvc9ZrgUW_10karva_core10extensions8fixtures7manager5testss_68test_fixture_manager_complex_dependency_chain_with_multiple_branchess_0Bb_
FNDA:1,_RNCNvNtNtNtNtCs1eKvc9ZrgUW_10karva_core10extensions8fixtures7manager5testss_72test_fixture_manager_add_fixtures_impl_two_dependencies_different_scopes0Bb_
FNDA:1,_RNCNvNtNtNtNtCs1eKvc9ZrgUW_10karva_core10extensions8fixtures7manager5testss_72test_fixture_manager_add_fixtures_impl_two_dependencies_different_scopess_0Bb_
FNDA:1,_RNCNvNtNtNtNtCs1eKvc9ZrgUW_10karva_core10extensions8fixtures7manager5testss_74test_fixture_manager_add_fixtures_impl_three_dependencies_different_scopes0Bb_
FNDA:1,_RNCNvNtNtNtNtCs1eKvc9ZrgUW_10karva_core10extensions8fixtures7manager5testss_74test_fixture_manager_add_fixtures_impl_three_dependencies_different_scopess_0Bb_
FNDA:1,_RNCNvNtNtNtNtCs1eKvc9ZrgUW_10karva_core10extensions8fixtures7manager5testss_99test_fixture_manager_add_fixtures_impl_three_dependencies_different_scopes_with_fixture_in_function0Bb_
FNDA:1,_RNCNvNtNtNtNtCs1eKvc9ZrgUW_10karva_core10extensions8fixtures7manager5testss_99test_fixture_manager_add_fixtures_impl_three_dependencies_different_scopes_with_fixture_in_functions_0Bb_
FNF:68
FNH:66
DA:24,173
DA:25,173
DA:26,173
DA:27,173
DA:28,173
DA:29,173
DA:30,173
DA:32,35
DA:33,35
DA:34,35
DA:40,305
DA:41,305
DA:42,305
DA:43,305
DA:44,305
DA:45,305
DA:46,305
DA:47,214
DA:48,164
DA:49,214
DA:50,164
DA:51,141
DA:53,141
DA:54,141
DA:55,3
DA:56,3
DA:57,0
DA:59,138
DA:62,138
DA:63,305
DA:65,867
DA:66,867
DA:67,867
DA:68,867
DA:71,50
DA:72,50
DA:73,50
DA:74,63
DA:75,50
DA:100,895
DA:101,895
DA:102,895
DA:103,895
DA:104,895
DA:105,895
DA:106,895
DA:107,895
DA:109,862
DA:110,862
DA:111,862
DA:114,9
DA:115,9
DA:116,9
DA:117,9
DA:118,9
DA:119,9
DA:120,9
DA:122,0
DA:123,0
DA:124,0
DA:126,9
DA:129,41
DA:130,41
DA:131,41
DA:132,0
DA:133,0
DA:134,0
DA:135,0
DA:136,41
DA:138,822
DA:139,822
DA:140,65
DA:141,757
DA:142,757
DA:143,757
DA:144,757
DA:145,822
DA:150,305
DA:151,305
DA:152,305
DA:153,305
DA:154,305
DA:155,305
DA:157,305
DA:158,167
DA:159,138
DA:161,138
DA:162,124
DA:163,305
DA:165,173
DA:166,173
DA:167,173
DA:168,173
DA:169,173
DA:170,0
DA:171,0
DA:172,173
DA:174,35
DA:175,35
DA:176,35
DA:177,35
DA:178,0
DA:179,0
DA:180,35
DA:187,240
DA:188,240
DA:189,240
DA:190,240
DA:191,240
DA:192,240
DA:193,240
DA:194,240
DA:196,65
DA:197,175
DA:201,175
DA:204,175
DA:206,256
DA:207,81
DA:208,155
DA:209,108
DA:211,36
DA:212,34
DA:213,34
DA:214,34
DA:215,2
DA:216,72
DA:221,81
DA:222,69
DA:223,69
DA:225,69
DA:226,17
DA:227,17
DA:228,17
DA:229,17
DA:230,17
DA:231,17
DA:233,17
DA:234,0
DA:235,52
DA:237,34
DA:240,175
DA:241,0
DA:244,175
DA:245,173
DA:246,173
DA:247,173
DA:248,173
DA:249,173
DA:250,173
DA:251,173
DA:252,173
DA:253,173
DA:254,2
DA:255,2
DA:256,2
DA:258,240
DA:263,1874
DA:264,1874
DA:265,1874
DA:266,1874
DA:267,1874
DA:268,1874
DA:269,1874
DA:270,1874
DA:271,1874
DA:273,2063
DA:274,189
DA:275,189
DA:276,1874
DA:278,705
DA:279,705
DA:280,705
DA:281,705
DA:282,705
DA:283,705
DA:284,705
DA:285,705
DA:286,705
DA:288,977
DA:289,977
DA:290,977
DA:292,705
DA:294,705
DA:295,705
DA:301,867
DA:302,867
DA:303,867
DA:315,1
DA:316,1
DA:317,1
DA:318,1
DA:319,1
DA:320,1
DA:321,1
DA:322,1
DA:323,1
DA:324,1
DA:325,1
DA:326,1
DA:327,1
DA:329,1
DA:331,1
DA:333,1
DA:335,1
DA:337,1
DA:339,1
DA:341,1
DA:343,1
DA:344,1
DA:346,1
DA:347,1
DA:348,1
DA:349,1
DA:350,1
DA:351,1
DA:354,1
DA:355,1
DA:356,1
DA:359,1
DA:360,1
DA:361,1
DA:362,1
DA:363,1
DA:364,1
DA:365,1
DA:366,1
DA:367,1
DA:368,1
DA:369,1
DA:370,1
DA:371,1
DA:372,1
DA:373,1
DA:374,1
DA:375,1
DA:376,1
DA:377,1
DA:378,1
DA:379,1
DA:380,1
DA:382,1
DA:383,1
DA:384,1
DA:385,1
DA:387,1
DA:388,1
DA:390,1
DA:392,1
DA:394,1
DA:396,1
DA:398,1
DA:399,1
DA:401,1
DA:402,1
DA:403,1
DA:404,1
DA:405,1
DA:406,1
DA:409,1
DA:410,1
DA:411,1
DA:412,1
DA:415,1
DA:416,1
DA:417,1
DA:418,1
DA:419,1
DA:420,1
DA:421,1
DA:422,1
DA:423,1
DA:424,1
DA:425,1
DA:426,1
DA:427,1
DA:428,1
DA:429,1
DA:430,1
DA:432,1
DA:433,1
DA:434,1
DA:435,1
DA:437,1
DA:438,1
DA:440,1
DA:442,1
DA:444,1
DA:446,1
DA:448,1
DA:449,1
DA:451,1
DA:452,1
DA:453,1
DA:454,1
DA:455,1
DA:456,1
DA:459,1
DA:460,1
DA:461,1
DA:462,1
DA:465,1
DA:466,1
DA:467,1
DA:468,1
DA:469,1
DA:470,1
DA:471,1
DA:472,1
DA:473,1
DA:474,1
DA:475,1
DA:476,1
DA:477,1
DA:478,1
DA:479,1
DA:480,1
DA:481,1
DA:482,1
DA:483,1
DA:484,1
DA:485,1
DA:486,1
DA:487,1
DA:488,1
DA:489,1
DA:490,1
DA:491,1
DA:492,1
DA:493,1
DA:494,1
DA:495,1
DA:497,1
DA:498,1
DA:499,1
DA:500,1
DA:501,1
DA:503,1
DA:504,1
DA:506,1
DA:508,1
DA:510,1
DA:512,1
DA:514,1
DA:516,1
DA:517,1
DA:519,1
DA:520,1
DA:521,1
DA:522,1
DA:523,1
DA:524,1
DA:527,1
DA:528,1
DA:529,1
DA:530,1
DA:531,1
DA:534,1
DA:535,1
DA:536,1
DA:537,1
DA:538,1
DA:539,1
DA:540,1
DA:541,1
DA:542,1
DA:543,1
DA:544,1
DA:545,1
DA:546,1
DA:547,1
DA:548,1
DA:549,1
DA:550,1
DA:551,1
DA:552,1
DA:553,1
DA:554,1
DA:555,1
DA:556,1
DA:557,1
DA:558,1
DA:559,1
DA:561,1
DA:562,1
DA:563,1
DA:564,1
DA:566,1
DA:567,1
DA:569,1
DA:571,1
DA:573,1
DA:575,1
DA:577,1
DA:578,1
DA:579,1
DA:581,1
DA:583,1
DA:584,1
DA:585,1
DA:587,1
DA:588,1
DA:589,1
DA:590,1
DA:591,1
DA:592,1
DA:595,1
DA:596,1
DA:598,1
DA:599,1
DA:600,1
DA:601,1
DA:602,1
DA:603,1
DA:606,1
DA:607,1
DA:608,1
DA:609,1
DA:610,1
DA:613,1
DA:614,1
DA:615,1
DA:616,1
DA:617,1
DA:618,1
DA:619,1
DA:620,1
DA:621,1
DA:622,1
DA:623,1
DA:624,1
DA:625,1
DA:626,1
DA:627,1
DA:628,1
DA:629,1
DA:630,1
DA:631,1
DA:632,1
DA:633,1
DA:634,1
DA:635,1
DA:636,1
DA:637,1
DA:638,1
DA:639,1
DA:640,1
DA:641,1
DA:642,1
DA:643,1
DA:645,1
DA:646,1
DA:647,1
DA:648,1
DA:649,1
DA:651,1
DA:652,1
DA:654,1
DA:656,1
DA:658,1
DA:660,1
DA:662,1
DA:664,1
DA:665,1
DA:666,1
DA:668,1
DA:670,1
DA:671,1
DA:672,1
DA:673,1
DA:674,1
DA:675,1
DA:678,1
DA:679,1
DA:681,1
DA:682,1
DA:683,1
DA:684,1
DA:685,1
DA:686,1
DA:689,1
DA:690,1
DA:692,1
DA:693,1
DA:694,1
DA:695,1
DA:696,1
DA:697,1
DA:700,1
DA:701,1
DA:702,1
DA:703,1
DA:704,1
DA:707,1
DA:709,1
DA:710,1
DA:711,1
DA:712,1
DA:713,1
DA:714,1
DA:715,1
DA:716,1
DA:717,1
DA:718,1
DA:719,1
DA:720,1
DA:721,1
DA:722,1
DA:723,1
DA:724,1
DA:725,1
DA:726,1
DA:727,1
DA:728,1
DA:730,1
DA:731,1
DA:732,1
DA:733,1
DA:735,1
DA:736,1
DA:738,1
DA:740,1
DA:742,1
DA:744,1
DA:746,1
DA:747,1
DA:748,1
DA:750,1
DA:752,1
DA:753,1
DA:754,1
DA:755,1
DA:756,1
DA:757,1
DA:760,1
DA:761,1
DA:763,1
DA:764,1
DA:765,1
DA:766,1
DA:768,1
DA:769,1
DA:770,1
DA:771,1
DA:772,1
DA:773,1
DA:776,1
DA:777,1
DA:778,1
DA:779,1
DA:780,1
DA:783,1
DA:784,1
DA:785,1
DA:786,1
DA:787,1
DA:788,1
DA:789,1
DA:790,1
DA:791,1
DA:792,1
DA:793,1
DA:794,1
DA:795,1
DA:796,1
DA:797,1
DA:798,1
DA:799,1
DA:800,1
DA:801,1
DA:802,1
DA:803,1
DA:804,1
DA:805,1
DA:806,1
DA:807,1
DA:808,1
DA:809,1
DA:810,1
DA:811,1
DA:812,1
DA:813,1
DA:814,1
DA:815,1
DA:816,1
DA:817,1
DA:818,1
DA:819,1
DA:820,1
DA:821,1
DA:822,1
DA:824,1
DA:825,1
DA:826,1
DA:827,1
DA:828,1
DA:830,1
DA:831,1
DA:833,1
DA:834,1
DA:835,1
DA:836,1
DA:838,1
DA:840,1
DA:841,1
DA:842,1
DA:843,1
DA:845,1
DA:847,1
DA:848,1
DA:849,1
DA:850,1
DA:851,1
DA:852,1
DA:855,1
DA:856,1
DA:858,1
DA:859,1
DA:860,1
DA:861,1
DA:862,1
DA:863,1
DA:866,1
DA:867,1
DA:869,1
DA:870,1
DA:871,1
DA:872,1
DA:873,1
DA:874,1
DA:877,1
DA:878,1
DA:880,1
DA:881,1
DA:882,1
DA:883,1
DA:884,1
DA:885,1
DA:888,1
DA:889,1
DA:890,1
DA:891,1
DA:892,1
DA:893,1
DA:896,1
DA:897,1
DA:898,1
DA:899,1
DA:900,1
DA:901,1
DA:902,1
DA:903,1
DA:904,1
DA:905,1
DA:906,1
DA:907,1
DA:908,1
DA:909,1
DA:910,1
DA:911,1
DA:912,1
DA:913,1
DA:914,1
DA:915,1
DA:916,1
DA:917,1
DA:918,1
DA:919,1
DA:920,1
DA:921,1
DA:922,1
DA:923,1
DA:924,1
DA:925,1
DA:926,1
DA:927,1
DA:928,1
DA:929,1
DA:930,1
DA:931,1
DA:932,1
DA:933,1
DA:935,1
DA:936,1
DA:937,1
DA:938,1
DA:939,1
DA:940,1
DA:942,1
DA:943,1
DA:945,1
DA:946,1
DA:947,1
DA:949,1
DA:950,1
DA:952,1
DA:953,1
DA:955,1
DA:956,1
DA:957,1
DA:959,1
DA:961,1
DA:962,1
DA:963,1
DA:965,1
DA:966,1
DA:967,1
DA:968,1
DA:969,1
DA:970,1
DA:973,1
DA:974,1
DA:976,1
DA:977,1
DA:978,1
DA:979,1
DA:980,1
DA:981,1
DA:984,1
DA:985,1
DA:986,1
DA:987,1
DA:988,1
DA:989,1
DA:992,1
DA:993,1
DA:994,1
DA:995,1
DA:996,1
DA:999,1
DA:1000,1
DA:1001,1
DA:1002,1
DA:1003,1
DA:1004,1
DA:1005,1
DA:1006,1
DA:1007,1
DA:1008,1
DA:1009,1
DA:1010,1
DA:1011,1
DA:1012,1
DA:1013,1
DA:1014,1
DA:1015,1
DA:1016,1
DA:1017,1
DA:1018,1
DA:1019,1
DA:1020,1
DA:1021,1
DA:1022,1
DA:1023,1
DA:1024,1
DA:1026,1
DA:1027,1
DA:1028,1
DA:1029,1
DA:1030,1
DA:1032,1
DA:1033,1
DA:1035,1
DA:1036,1
DA:1038,1
DA:1039,1
DA:1041,1
DA:1042,1
DA:1044,1
DA:1045,1
DA:1047,1
DA:1048,1
DA:1049,1
DA:1050,1
DA:1051,1
DA:1052,1
DA:1055,1
DA:1056,1
DA:1057,1
DA:1058,1
DA:1059,1
DA:1060,1
DA:1061,1
DA:1064,1
DA:1065,1
DA:1066,1
DA:1069,1
DA:1070,1
DA:1071,1
DA:1072,1
DA:1073,1
DA:1074,1
DA:1075,1
DA:1076,1
DA:1077,1
DA:1078,1
DA:1079,1
DA:1080,1
DA:1081,1
DA:1082,1
DA:1083,1
DA:1084,1
DA:1085,1
DA:1086,1
DA:1087,1
DA:1088,1
DA:1089,1
DA:1090,1
DA:1091,1
DA:1092,1
DA:1093,1
DA:1095,1
DA:1096,1
DA:1097,1
DA:1099,1
DA:1100,1
DA:1102,1
DA:1103,1
DA:1104,1
DA:1106,1
DA:1107,1
DA:1109,1
DA:1110,1
DA:1111,1
DA:1112,1
DA:1113,1
DA:1114,1
DA:1117,1
DA:1118,1
DA:1119,1
DA:1121,1
DA:1122,1
DA:1124,1
DA:1125,1
DA:1127,1
DA:1128,1
DA:1131,1
DA:1132,1
DA:1133,1
DA:1134,1
DA:1135,1
DA:1136,1
DA:1137,1
DA:1138,1
DA:1139,1
DA:1140,1
DA:1141,1
DA:1142,1
DA:1143,1
DA:1144,1
DA:1145,1
DA:1146,1
DA:1147,1
DA:1148,1
DA:1149,1
DA:1150,1
DA:1151,1
DA:1152,1
DA:1153,1
DA:1154,1
DA:1155,1
DA:1156,1
DA:1157,1
DA:1158,1
DA:1159,1
DA:1160,1
DA:1161,1
DA:1162,1
DA:1163,1
DA:1164,1
DA:1165,1
DA:1166,1
DA:1167,1
DA:1168,1
DA:1169,1
DA:1170,1
DA:1171,1
DA:1172,1
DA:1173,1
DA:1174,1
DA:1175,1
DA:1176,1
DA:1177,1
DA:1178,1
DA:1179,1
DA:1180,1
DA:1181,1
DA:1182,1
DA:1184,1
DA:1185,1
DA:1186,1
DA:1187,1
DA:1188,1
DA:1189,1
DA:1190,1
DA:1192,1
DA:1193,1
DA:1195,1
DA:1196,1
DA:1197,1
DA:1198,1
DA:1199,1
DA:1201,1
DA:1202,1
DA:1204,1
DA:1205,1
DA:1206,1
DA:1207,1
DA:1208,1
DA:1210,1
DA:1212,1
DA:1213,1
DA:1214,1
DA:1215,1
DA:1216,1
DA:1217,1
DA:1219,1
DA:1220,1
DA:1222,1
DA:1223,1
DA:1224,1
DA:1225,1
DA:1226,1
DA:1227,1
DA:1230,1
DA:1231,1
DA:1233,1
DA:1234,1
DA:1235,1
DA:1236,1
DA:1237,1
DA:1238,1
DA:1241,1
DA:1242,1
DA:1244,1
DA:1245,1
DA:1246,1
DA:1248,1
DA:1249,1
DA:1250,1
DA:1251,1
DA:1252,1
DA:1253,1
DA:1256,1
DA:1257,1
DA:1258,1
DA:1259,1
DA:1260,1
DA:1261,1
DA:1262,1
DA:1265,1
DA:1266,1
DA:1267,1
DA:1268,1
DA:1269,1
DA:1270,1
DA:1271,1
DA:1272,1
DA:1273,1
DA:1274,1
DA:1275,1
DA:1276,1
DA:1277,1
DA:1278,1
DA:1279,1
DA:1280,1
DA:1281,1
DA:1282,1
DA:1283,1
DA:1284,1
DA:1285,1
DA:1286,1
DA:1287,1
DA:1289,1
DA:1290,1
DA:1291,1
DA:1293,1
DA:1294,1
DA:1296,1
DA:1297,1
DA:1299,1
DA:1300,1
DA:1301,1
DA:1303,1
DA:1304,1
DA:1306,1
DA:1307,1
DA:1308,1
DA:1309,1
DA:1311,1
DA:1312,1
DA:1313,1
DA:1314,1
DA:1315,1
DA:1316,1
DA:1319,1
DA:1320,1
DA:1322,1
DA:1323,1
DA:1324,1
DA:1325,1
DA:1326,1
DA:1327,1
DA:1330,1
DA:1331,1
DA:1332,1
DA:1333,1
DA:1336,1
DA:1337,1
DA:1338,1
DA:1339,1
DA:1340,1
DA:1341,1
DA:1342,1
DA:1343,1
DA:1344,1
DA:1345,1
DA:1346,1
DA:1347,1
DA:1348,1
DA:1349,1
DA:1350,1
DA:1351,1
DA:1352,1
DA:1353,1
DA:1354,1
DA:1355,1
DA:1356,1
DA:1357,1
DA:1358,1
DA:1359,1
DA:1360,1
DA:1361,1
DA:1362,1
DA:1363,1
DA:1364,1
DA:1365,1
DA:1366,1
DA:1367,1
DA:1368,1
DA:1369,1
DA:1370,1
DA:1371,1
DA:1372,1
DA:1374,1
DA:1375,1
DA:1376,1
DA:1378,1
DA:1379,1
DA:1381,1
DA:1382,1
DA:1383,1
DA:1385,1
DA:1386,1
DA:1387,1
DA:1388,1
DA:1389,1
DA:1390,1
DA:1392,1
DA:1394,1
DA:1395,1
DA:1396,1
DA:1398,1
DA:1399,1
DA:1400,1
DA:1401,1
DA:1402,1
DA:1403,1
DA:1406,1
DA:1407,1
DA:1409,1
DA:1410,1
DA:1411,1
DA:1413,1
DA:1414,1
DA:1415,1
DA:1416,1
DA:1417,1
DA:1418,1
DA:1421,1
DA:1422,1
DA:1424,1
DA:1425,1
DA:1426,1
DA:1427,1
DA:1428,1
DA:1429,1
DA:1432,1
DA:1433,1
DA:1435,1
DA:1436,1
DA:1437,1
DA:1438,1
DA:1439,1
DA:1440,1
DA:1443,1
DA:1444,1
DA:1445,1
DA:1446,1
DA:1447,1
DA:1448,1
DA:1449,1
DA:1450,1
DA:1453,1
DA:1454,1
DA:1455,1
DA:1456,1
DA:1457,1
DA:1458,1
DA:1459,1
DA:1460,1
DA:1461,1
DA:1462,1
DA:1463,1
DA:1464,1
DA:1465,1
DA:1466,1
DA:1467,1
DA:1468,1
DA:1469,1
DA:1470,1
DA:1471,1
DA:1472,1
DA:1473,1
DA:1474,1
DA:1475,1
DA:1476,1
DA:1477,1
DA:1478,1
DA:1479,1
DA:1480,1
DA:1482,1
DA:1483,1
DA:1484,1
DA:1486,1
DA:1487,1
DA:1489,1
DA:1491,1
DA:1493,1
DA:1495,1
DA:1496,1
DA:1498,1
DA:1499,1
DA:1500,1
DA:1501,1
DA:1502,1
DA:1503,1
DA:1506,1
DA:1507,1
DA:1509,1
DA:1510,1
DA:1511,1
DA:1512,1
DA:1513,1
DA:1514,1
DA:1517,1
DA:1518,1
DA:1520,1
DA:1521,1
DA:1522,1
DA:1523,1
DA:1524,1
DA:1525,1
DA:1528,1
DA:1529,1
DA:1531,1
DA:1532,1
DA:1533,1
DA:1534,1
DA:1535,1
DA:1536,1
DA:1539,1
DA:1540,1
DA:1541,1
DA:1542,1
DA:1544,1
DA:1545,1
DA:1546,1
DA:1547,1
DA:1548,1
DA:1549,1
DA:1552,1
DA:1553,1
DA:1554,1
DA:1555,1
DA:1558,1
DA:1559,1
DA:1560,1
DA:1561,1
DA:1564,1
DA:1565,1
DA:1566,1
DA:1567,1
DA:1569,1
DA:1570,1
BRF:0
BRH:0
LF:1230
LH:1214
end_of_record
SF:/home/matthew/develop/personal/karva/crates/karva_core/src/extensions/fixtures/mod.rs
FN:276,_RNCNvMs2_NtNtCs4RrqI5pJN37_10karva_core10extensions8fixturesNtB7_7Fixture17try_from_function0Bb_
FN:302,_RNCNvMs2_NtNtCs4RrqI5pJN37_10karva_core10extensions8fixturesNtB7_7Fixture17try_from_functions_0Bb_
FN:332,_RNCNvMs2_NtNtCs4RrqI5pJN37_10karva_core10extensions8fixturesNtB7_7Fixture24try_from_pytest_function0Bb_
FN:186,_RNCNvMs2_NtNtCs4RrqI5pJN37_10karva_core10extensions8fixturesNtB7_7Fixture4call0Bb_
FN:228,_RNCNvMs2_NtNtCs4RrqI5pJN37_10karva_core10extensions8fixturesNtB7_7Fixture4calls0_0Bb_
FN:257,_RNCNvMs2_NtNtCs4RrqI5pJN37_10karva_core10extensions8fixturesNtB7_7Fixture4calls1_0Bb_
FN:200,_RNCNvMs2_NtNtCs4RrqI5pJN37_10karva_core10extensions8fixturesNtB7_7Fixture4calls_0Bb_
FN:438,_RNCNvNtNtCs4RrqI5pJN37_10karva_core10extensions8fixtures19is_fixture_function0B7_
FN:101,_RNCNvNtNtCs4RrqI5pJN37_10karva_core10extensions8fixtures21resolve_dynamic_scope0B7_
FN:110,_RNCNvNtNtCs4RrqI5pJN37_10karva_core10extensions8fixtures21resolve_dynamic_scopes0_0B7_
FN:114,_RNCNvNtNtCs4RrqI5pJN37_10karva_core10extensions8fixtures21resolve_dynamic_scopes1_0B7_
FN:106,_RNCNvNtNtCs4RrqI5pJN37_10karva_core10extensions8fixtures21resolve_dynamic_scopes_0B7_
FN:39,_RNvMNtNtCs4RrqI5pJN37_10karva_core10extensions8fixturesNtB2_12FixtureScope12scopes_above
FN:158,_RNvMs2_NtNtCs4RrqI5pJN37_10karva_core10extensions8fixturesNtB5_7Fixture12is_generator
FN:267,_RNvMs2_NtNtCs4RrqI5pJN37_10karva_core10extensions8fixturesNtB5_7Fixture17try_from_function
FN:363,_RNvMs2_NtNtCs4RrqI5pJN37_10karva_core10extensions8fixturesNtB5_7Fixture23try_from_karva_function
FN:307,_RNvMs2_NtNtCs4RrqI5pJN37_10karva_core10extensions8fixturesNtB5_7Fixture24try_from_pytest_function
FN:130,_RNvMs2_NtNtCs4RrqI5pJN37_10karva_core10extensions8fixturesNtB5_7Fixture3new
FN:166,_RNvMs2_NtNtCs4RrqI5pJN37_10karva_core10extensions8fixturesNtB5_7Fixture4call
FN:150,_RNvMs2_NtNtCs4RrqI5pJN37_10karva_core10extensions8fixturesNtB5_7Fixture4name
FN:154,_RNvMs2_NtNtCs4RrqI5pJN37_10karva_core10extensions8fixturesNtB5_7Fixture5scope
FN:162,_RNvMs2_NtNtCs4RrqI5pJN37_10karva_core10extensions8fixturesNtB5_7Fixture8auto_use
FN:441,_RNvNtNtCs4RrqI5pJN37_10karva_core10extensions8fixtures10is_fixture
FN:409,_RNvNtNtCs4RrqI5pJN37_10karva_core10extensions8fixtures13fixture_scope
FN:400,_RNvNtNtCs4RrqI5pJN37_10karva_core10extensions8fixtures13get_attribute
FN:435,_RNvNtNtCs4RrqI5pJN37_10karva_core10extensions8fixtures19is_fixture_function
FN:93,_RNvNtNtCs4RrqI5pJN37_10karva_core10extensions8fixtures21resolve_dynamic_scope
FN:53,_RNvNvXs_NtNtCs4RrqI5pJN37_10karva_core10extensions8fixturesNtB6_12FixtureScopeNtNtCs3vi8RLxhvdw_4core3cmp10PartialOrd11partial_cmp4rank
FN:70,_RNvXs0_NtNtCs4RrqI5pJN37_10karva_core10extensions8fixturesNtB5_12FixtureScopeINtNtCs3vi8RLxhvdw_4core7convert7TryFromNtNtCsa9ZOT0ASFzx_5alloc6string6StringE8try_from
FN:82,_RNvXs1_NtNtCs4RrqI5pJN37_10karva_core10extensions8fixturesNtB5_12FixtureScopeNtNtCs3vi8RLxhvdw_4core3fmt7Display3fmt
FN:424,_RNvXs3_NtNtCs4RrqI5pJN37_10karva_core10extensions8fixturesNtB5_7FixtureNtNtCs3vi8RLxhvdw_4core3fmt5Debug3fmt
FN:52,_RNvXs_NtNtCs4RrqI5pJN37_10karva_core10extensions8fixturesNtB4_12FixtureScopeNtNtCs3vi8RLxhvdw_4core3cmp10PartialOrd11partial_cmp
FN:424,_RNvXs3_NtNtCs1eKvc9ZrgUW_10karva_core10extensions8fixturesNtB5_7FixtureNtNtCs3vi8RLxhvdw_4core3fmt5Debug3fmt
FN:463,_RNvNtNtNtCs1eKvc9ZrgUW_10karva_core10extensions8fixtures5testss_26test_fixture_scope_display
FN:455,_RNvNtNtNtCs1eKvc9ZrgUW_10karva_core10extensions8fixtures5testss_26test_invalid_fixture_scope
FN:471,_RNvNtNtNtCs1eKvc9ZrgUW_10karva_core10extensions8fixtures5testss_26test_resolve_dynamic_scope
FN:511,_RNvNtNtNtCs1eKvc9ZrgUW_10karva_core10extensions8fixtures5testss_36test_resolve_dynamic_scope_exception
FN:498,_RNvNtNtNtCs1eKvc9ZrgUW_10karva_core10extensions8fixtures5testss_41test_resolve_dynamic_scope_invalid_return
FN:481,_RNvNtNtNtCs1eKvc9ZrgUW_10karva_core10extensions8fixtures5testss_44test_resolve_dynamic_scope_with_fixture_name
FN:276,_RNCNvMs2_NtNtCs1eKvc9ZrgUW_10karva_core10extensions8fixturesNtB7_7Fixture17try_from_function0Bb_
FN:302,_RNCNvMs2_NtNtCs1eKvc9ZrgUW_10karva_core10extensions8fixturesNtB7_7Fixture17try_from_functions_0Bb_
FN:332,_RNCNvMs2_NtNtCs1eKvc9ZrgUW_10karva_core10extensions8fixturesNtB7_7Fixture24try_from_pytest_function0Bb_
FN:186,_RNCNvMs2_NtNtCs1eKvc9ZrgUW_10karva_core10extensions8fixturesNtB7_7Fixture4call0Bb_
FN:228,_RNCNvMs2_NtNtCs1eKvc9ZrgUW_10karva_core10extensions8fixturesNtB7_7Fixture4calls0_0Bb_
FN:257,_RNCNvMs2_NtNtCs1eKvc9ZrgUW_10karva_core10extensions8fixturesNtB7_7Fixture4calls1_0Bb_
FN:200,_RNCNvMs2_NtNtCs1eKvc9ZrgUW_10karva_core10extensions8fixturesNtB7_7Fixture4calls_0Bb_
FN:438,_RNCNvNtNtCs1eKvc9ZrgUW_10karva_core10extensions8fixtures19is_fixture_function0B7_
FN:101,_RNCNvNtNtCs1eKvc9ZrgUW_10karva_core10extensions8fixtures21resolve_dynamic_scope0B7_
FN:110,_RNCNvNtNtCs1eKvc9ZrgUW_10karva_core10extensions8fixtures21resolve_dynamic_scopes0_0B7_
FN:114,_RNCNvNtNtCs1eKvc9ZrgUW_10karva_core10extensions8fixtures21resolve_dynamic_scopes1_0B7_
FN:106,_RNCNvNtNtCs1eKvc9ZrgUW_10karva_core10extensions8fixtures21resolve_dynamic_scopes_0B7_
FN:472,_RNCNvNtNtNtCs1eKvc9ZrgUW_10karva_core10extensions8fixtures5testss_26test_resolve_dynamic_scope0B9_
FN:512,_RNCNvNtNtNtCs1eKvc9ZrgUW_10karva_core10extensions8fixtures5testss_36test_resolve_dynamic_scope_exception0B9_
FN:499,_RNCNvNtNtNtCs1eKvc9ZrgUW_10karva_core10extensions8fixtures5testss_41test_resolve_dynamic_scope_invalid_return0B9_
FN:482,_RNCNvNtNtNtCs1eKvc9ZrgUW_10karva_core10extensions8fixtures5testss_44test_resolve_dynamic_scope_with_fixture_name0B9_
FN:39,_RNvMNtNtCs1eKvc9ZrgUW_10karva_core10extensions8fixturesNtB2_12FixtureScope12scopes_above
FN:158,_RNvMs2_NtNtCs1eKvc9ZrgUW_10karva_core10extensions8fixturesNtB5_7Fixture12is_generator
FN:267,_RNvMs2_NtNtCs1eKvc9ZrgUW_10karva_core10extensions8fixturesNtB5_7Fixture17try_from_function
FN:363,_RNvMs2_NtNtCs1eKvc9ZrgUW_10karva_core10extensions8fixturesNtB5_7Fixture23try_from_karva_function
FN:307,_RNvMs2_NtNtCs1eKvc9ZrgUW_10karva_core10extensions8fixturesNtB5_7Fixture24try_from_pytest_function
FN:130,_RNvMs2_NtNtCs1eKvc9ZrgUW_10karva_core10extensions8fixturesNtB5_7Fixture3new
FN:166,_RNvMs2_NtNtCs1eKvc9ZrgUW_10karva_core10extensions8fixturesNtB5_7Fixture4call
FN:150,_RNvMs2_NtNtCs1eKvc9ZrgUW_10karva_core10extensions8fixturesNtB5_7Fixture4name
FN:154,_RNvMs2_NtNtCs1eKvc9ZrgUW_10karva_core10extensions8fixturesNtB5_7Fixture5scope
FN:162,_RNvMs2_NtNtCs1eKvc9ZrgUW_10karva_core10extensions8fixturesNtB5_7Fixture8auto_use
FN:441,_RNvNtNtCs1eKvc9ZrgUW_10karva_core10extensions8fixtures10is_fixture
FN:409,_RNvNtNtCs1eKvc9ZrgUW_10karva_core10extensions8fixtures13fixture_scope
FN:400,_RNvNtNtCs1eKvc9ZrgUW_10karva_core10extensions8fixtures13get_attribute
FN:435,_RNvNtNtCs1eKvc9ZrgUW_10karva_core10extensions8fixtures19is_fixture_function
FN:93,_RNvNtNtCs1eKvc9ZrgUW_10karva_core10extensions8fixtures21resolve_dynamic_scope
FN:53,_RNvNvXs_NtNtCs1eKvc9ZrgUW_10karva_core10extensions8fixturesNtB6_12FixtureScopeNtNtCs3vi8RLxhvdw_4core3cmp10PartialOrd11partial_cmp4rank
FN:70,_RNvXs0_NtNtCs1eKvc9ZrgUW_10karva_core10extensions8fixturesNtB5_12FixtureScopeINtNtCs3vi8RLxhvdw_4core7convert7TryFromNtNtCsa9ZOT0ASFzx_5alloc6string6StringE8try_from
FN:82,_RNvXs1_NtNtCs1eKvc9ZrgUW_10karva_core10extensions8fixturesNtB5_12FixtureScopeNtNtCs3vi8RLxhvdw_4core3fmt7Display3fmt
FN:52,_RNvXs_NtNtCs1eKvc9ZrgUW_10karva_core10extensions8fixturesNtB4_12FixtureScopeNtNtCs3vi8RLxhvdw_4core3cmp10PartialOrd11partial_cmp
FNDA:0,_RNCNvMs2_NtNtCs4RrqI5pJN37_10karva_core10extensions8fixturesNtB7_7Fixture17try_from_function0Bb_
FNDA:0,_RNCNvMs2_NtNtCs4RrqI5pJN37_10karva_core10extensions8fixturesNtB7_7Fixture17try_from_functions_0Bb_
FNDA:39,_RNCNvMs2_NtNtCs4RrqI5pJN37_10karva_core10extensions8fixturesNtB7_7Fixture24try_from_pytest_function0Bb_
FNDA:60,_RNCNvMs2_NtNtCs4RrqI5pJN37_10karva_core10extensions8fixturesNtB7_7Fixture4call0Bb_
FNDA:1,_RNCNvMs2_NtNtCs4RrqI5pJN37_10karva_core10extensions8fixturesNtB7_7Fixture4calls0_0Bb_
FNDA:125,_RNCNvMs2_NtNtCs4RrqI5pJN37_10karva_core10extensions8fixturesNtB7_7Fixture4calls1_0Bb_
FNDA:23,_RNCNvMs2_NtNtCs4RrqI5pJN37_10karva_core10extensions8fixturesNtB7_7Fixture4calls_0Bb_
FNDA:193,_RNCNvNtNtCs4RrqI5pJN37_10karva_core10extensions8fixtures19is_fixture_function0B7_
FNDA:0,_RNCNvNtNtCs4RrqI5pJN37_10karva_core10extensions8fixtures21resolve_dynamic_scope0B7_
FNDA:0,_RNCNvNtNtCs4RrqI5pJN37_10karva_core10extensions8fixtures21resolve_dynamic_scopes0_0B7_
FNDA:0,_RNCNvNtNtCs4RrqI5pJN37_10karva_core10extensions8fixtures21resolve_dynamic_scopes1_0B7_
FNDA:0,_RNCNvNtNtCs4RrqI5pJN37_10karva_core10extensions8fixtures21resolve_dynamic_scopes_0B7_
FNDA:697,_RNvMNtNtCs4RrqI5pJN37_10karva_core10extensions8fixturesNtB2_12FixtureScope12scopes_above
FNDA:159,_RNvMs2_NtNtCs4RrqI5pJN37_10karva_core10extensions8fixturesNtB5_7Fixture12is_generator
FNDA:103,_RNvMs2_NtNtCs4RrqI5pJN37_10karva_core10extensions8fixturesNtB5_7Fixture17try_from_function
FNDA:103,_RNvMs2_NtNtCs4RrqI5pJN37_10karva_core10extensions8fixturesNtB5_7Fixture23try_from_karva_function
FNDA:39,_RNvMs2_NtNtCs4RrqI5pJN37_10karva_core10extensions8fixturesNtB5_7Fixture24try_from_pytest_function
FNDA:102,_RNvMs2_NtNtCs4RrqI5pJN37_10karva_core10extensions8fixturesNtB5_7Fixture3new
FNDA:126,_RNvMs2_NtNtCs4RrqI5pJN37_10karva_core10extensions8fixturesNtB5_7Fixture4call
FNDA:706,_RNvMs2_NtNtCs4RrqI5pJN37_10karva_core10extensions8fixturesNtB5_7Fixture4name
FNDA:422,_RNvMs2_NtNtCs4RrqI5pJN37_10karva_core10extensions8fixturesNtB5_7Fixture5scope
FNDA:281,_RNvMs2_NtNtCs4RrqI5pJN37_10karva_core10extensions8fixturesNtB5_7Fixture8auto_use
FNDA:335,_RNvNtNtCs4RrqI5pJN37_10karva_core10extensions8fixtures10is_fixture
FNDA:103,_RNvNtNtCs4RrqI5pJN37_10karva_core10extensions8fixtures13fixture_scope
FNDA:195,_RNvNtNtCs4RrqI5pJN37_10karva_core10extensions8fixtures13get_attribute
FNDA:326,_RNvNtNtCs4RrqI5pJN37_10karva_core10extensions8fixtures19is_fixture_function
FNDA:4,_RNvNtNtCs4RrqI5pJN37_10karva_core10extensions8fixtures21resolve_dynamic_scope
FNDA:314,_RNvNvXs_NtNtCs4RrqI5pJN37_10karva_core10extensions8fixturesNtB6_12FixtureScopeNtNtCs3vi8RLxhvdw_4core3cmp10PartialOrd11partial_cmp4rank
FNDA:103,_RNvXs0_NtNtCs4RrqI5pJN37_10karva_core10extensions8fixturesNtB5_12FixtureScopeINtNtCs3vi8RLxhvdw_4core7convert7TryFromNtNtCsa9ZOT0ASFzx_5alloc6string6StringE8try_from
FNDA:0,_RNvXs1_NtNtCs4RrqI5pJN37_10karva_core10extensions8fixturesNtB5_12FixtureScopeNtNtCs3vi8RLxhvdw_4core3fmt7Display3fmt
FNDA:0,_RNvXs3_NtNtCs4RrqI5pJN37_10karva_core10extensions8fixturesNtB5_7FixtureNtNtCs3vi8RLxhvdw_4core3fmt5Debug3fmt
FNDA:157,_RNvXs_NtNtCs4RrqI5pJN37_10karva_core10extensions8fixturesNtB4_12FixtureScopeNtNtCs3vi8RLxhvdw_4core3cmp10PartialOrd11partial_cmp
FNDA:0,_RNvXs3_NtNtCs1eKvc9ZrgUW_10karva_core10extensions8fixturesNtB5_7FixtureNtNtCs3vi8RLxhvdw_4core3fmt5Debug3fmt
FNDA:1,_RNvNtNtNtCs1eKvc9ZrgUW_10karva_core10extensions8fixtures5testss_26test_fixture_scope_display
FNDA:1,_RNvNtNtNtCs1eKvc9ZrgUW_10karva_core10extensions8fixtures5testss_26test_invalid_fixture_scope
FNDA:1,_RNvNtNtNtCs1eKvc9ZrgUW_10karva_core10extensions8fixtures5testss_26test_resolve_dynamic_scope
FNDA:1,_RNvNtNtNtCs1eKvc9ZrgUW_10karva_core10extensions8fixtures5testss_36test_resolve_dynamic_scope_exception
FNDA:1,_RNvNtNtNtCs1eKvc9ZrgUW_10karva_core10extensions8fixtures5testss_41test_resolve_dynamic_scope_invalid_return
FNDA:1,_RNvNtNtNtCs1eKvc9ZrgUW_10karva_core10extensions8fixtures5testss_44test_resolve_dynamic_scope_with_fixture_name
FNDA:0,_RNCNvMs2_NtNtCs1eKvc9ZrgUW_10karva_core10extensions8fixturesNtB7_7Fixture17try_from_function0Bb_
FNDA:0,_RNCNvMs2_NtNtCs1eKvc9ZrgUW_10karva_core10extensions8fixturesNtB7_7Fixture17try_from_functions_0Bb_
FNDA:2,_RNCNvMs2_NtNtCs1eKvc9ZrgUW_10karva_core10extensions8fixturesNtB7_7Fixture24try_from_pytest_function0Bb_
FNDA:0,_RNCNvMs2_NtNtCs1eKvc9ZrgUW_10karva_core10extensions8fixturesNtB7_7Fixture4call0Bb_
FNDA:0,_RNCNvMs2_NtNtCs1eKvc9ZrgUW_10karva_core10extensions8fixturesNtB7_7Fixture4calls0_0Bb_
FNDA:47,_RNCNvMs2_NtNtCs1eKvc9ZrgUW_10karva_core10extensions8fixturesNtB7_7Fixture4calls1_0Bb_
FNDA:31,_RNCNvMs2_NtNtCs1eKvc9ZrgUW_10karva_core10extensions8fixturesNtB7_7Fixture4calls_0Bb_
FNDA:84,_RNCNvNtNtCs1eKvc9ZrgUW_10karva_core10extensions8fixtures19is_fixture_function0B7_
FNDA:0,_RNCNvNtNtCs1eKvc9ZrgUW_10karva_core10extensions8fixtures21resolve_dynamic_scope0B7_
FNDA:1,_RNCNvNtNtCs1eKvc9ZrgUW_10karva_core10extensions8fixtures21resolve_dynamic_scopes0_0B7_
FNDA:0,_RNCNvNtNtCs1eKvc9ZrgUW_10karva_core10extensions8fixtures21resolve_dynamic_scopes1_0B7_
FNDA:0,_RNCNvNtNtCs1eKvc9ZrgUW_10karva_core10extensions8fixtures21resolve_dynamic_scopes_0B7_
FNDA:1,_RNCNvNtNtNtCs1eKvc9ZrgUW_10karva_core10extensions8fixtures5testss_26test_resolve_dynamic_scope0B9_
FNDA:1,_RNCNvNtNtNtCs1eKvc9ZrgUW_10karva_core10extensions8fixtures5testss_36test_resolve_dynamic_scope_exception0B9_
FNDA:1,_RNCNvNtNtNtCs1eKvc9ZrgUW_10karva_core10extensions8fixtures5testss_41test_resolve_dynamic_scope_invalid_return0B9_
FNDA:1,_RNCNvNtNtNtCs1eKvc9ZrgUW_10karva_core10extensions8fixtures5testss_44test_resolve_dynamic_scope_with_fixture_name0B9_
FNDA:8,_RNvMNtNtCs1eKvc9ZrgUW_10karva_core10extensions8fixturesNtB2_12FixtureScope12scopes_above
FNDA:50,_RNvMs2_NtNtCs1eKvc9ZrgUW_10karva_core10extensions8fixturesNtB5_7Fixture12is_generator
FNDA:84,_RNvMs2_NtNtCs1eKvc9ZrgUW_10karva_core10extensions8fixturesNtB5_7Fixture17try_from_function
FNDA:84,_RNvMs2_NtNtCs1eKvc9ZrgUW_10karva_core10extensions8fixturesNtB5_7Fixture23try_from_karva_function
FNDA:2,_RNvMs2_NtNtCs1eKvc9ZrgUW_10karva_core10extensions8fixturesNtB5_7Fixture24try_from_pytest_function
FNDA:84,_RNvMs2_NtNtCs1eKvc9ZrgUW_10karva_core10extensions8fixturesNtB5_7Fixture3new
FNDA:49,_RNvMs2_NtNtCs1eKvc9ZrgUW_10karva_core10extensions8fixturesNtB5_7Fixture4call
FNDA:435,_RNvMs2_NtNtCs1eKvc9ZrgUW_10karva_core10extensions8fixturesNtB5_7Fixture4name
FNDA:109,_RNvMs2_NtNtCs1eKvc9ZrgUW_10karva_core10extensions8fixturesNtB5_7Fixture5scope
FNDA:82,_RNvMs2_NtNtCs1eKvc9ZrgUW_10karva_core10extensions8fixturesNtB5_7Fixture8auto_use
FNDA:164,_RNvNtNtCs1eKvc9ZrgUW_10karva_core10extensions8fixtures10is_fixture
FNDA:84,_RNvNtNtCs1eKvc9ZrgUW_10karva_core10extensions8fixtures13fixture_scope
FNDA:10,_RNvNtNtCs1eKvc9ZrgUW_10karva_core10extensions8fixtures13get_attribute
FNDA:158,_RNvNtNtCs1eKvc9ZrgUW_10karva_core10extensions8fixtures19is_fixture_function
FNDA:5,_RNvNtNtCs1eKvc9ZrgUW_10karva_core10extensions8fixtures21resolve_dynamic_scope
FNDA:102,_RNvNvXs_NtNtCs1eKvc9ZrgUW_10karva_core10extensions8fixturesNtB6_12FixtureScopeNtNtCs3vi8RLxhvdw_4core3cmp10PartialOrd11partial_cmp4rank
FNDA:89,_RNvXs0_NtNtCs1eKvc9ZrgUW_10karva_core10extensions8fixturesNtB5_12FixtureScopeINtNtCs3vi8RLxhvdw_4core7convert7TryFromNtNtCsa9ZOT0ASFzx_5alloc6string6StringE8try_from
FNDA:4,_RNvXs1_NtNtCs1eKvc9ZrgUW_10karva_core10extensions8fixturesNtB5_12FixtureScopeNtNtCs3vi8RLxhvdw_4core3fmt7Display3fmt
FNDA:51,_RNvXs_NtNtCs1eKvc9ZrgUW_10karva_core10extensions8fixturesNtB4_12FixtureScopeNtNtCs3vi8RLxhvdw_4core3cmp10PartialOrd11partial_cmp
FNF:42
FNH:36
DA:39,705
DA:42,705
DA:43,232
DA:44,158
DA:45,315
DA:46,0
DA:48,705
DA:52,208
DA:53,416
DA:54,416
DA:55,304
DA:56,56
DA:57,29
DA:58,27
DA:60,416
DA:61,208
DA:62,208
DA:63,208
DA:64,208
DA:70,192
DA:71,192
DA:72,192
DA:73,174
DA:74,154
DA:75,141
DA:76,3
DA:78,192
DA:82,4
DA:83,4
DA:84,1
DA:85,1
DA:86,1
DA:87,1
DA:89,4
DA:93,9
DA:94,9
DA:95,9
DA:96,9
DA:97,9
DA:98,9
DA:99,9
DA:100,9
DA:101,9
DA:104,9
DA:105,9
DA:106,9
DA:108,9
DA:109,9
DA:110,9
DA:112,8
DA:113,8
DA:114,8
DA:116,8
DA:117,9
DA:130,186
DA:131,186
DA:132,186
DA:133,186
DA:134,186
DA:135,186
DA:136,186
DA:137,186
DA:138,186
DA:139,186
DA:140,186
DA:141,186
DA:142,186
DA:143,186
DA:144,186
DA:145,186
DA:146,186
DA:147,186
DA:148,186
DA:150,1141
DA:151,1141
DA:152,1141
DA:154,531
DA:155,531
DA:156,531
DA:158,209
DA:159,209
DA:160,209
DA:162,363
DA:163,363
DA:164,363
DA:166,175
DA:167,175
DA:168,175
DA:169,175
DA:170,175
DA:171,175
DA:173,175
DA:175,175
DA:177,175
DA:179,256
DA:180,81
DA:181,28
DA:182,26
DA:183,2
DA:186,60
DA:187,60
DA:188,60
DA:189,60
DA:190,60
DA:191,60
DA:192,28
DA:193,52
DA:194,53
DA:196,52
DA:197,52
DA:198,52
DA:199,52
DA:200,54
DA:202,52
DA:203,1
DA:204,1
DA:205,1
DA:208,175
DA:210,175
DA:211,1
DA:212,1
DA:213,1
DA:214,1
DA:215,1
DA:216,1
DA:217,174
DA:219,174
DA:221,381
DA:222,208
DA:224,322
DA:225,114
DA:226,114
DA:228,208
DA:229,1
DA:230,1
DA:231,1
DA:232,1
DA:233,1
DA:234,1
DA:237,1
DA:239,208
DA:240,35
DA:241,35
DA:242,35
DA:244,35
DA:245,35
DA:246,35
DA:248,35
DA:249,35
DA:250,35
DA:251,35
DA:253,0
DA:256,173
DA:257,173
DA:258,172
DA:259,1
DA:264,173
DA:265,175
DA:267,187
DA:268,187
DA:269,187
DA:270,187
DA:271,187
DA:272,187
DA:273,187
DA:274,187
DA:275,187
DA:276,187
DA:278,187
DA:279,187
DA:280,187
DA:281,187
DA:282,187
DA:283,187
DA:286,187
DA:287,146
DA:288,41
DA:289,0
DA:292,41
DA:293,41
DA:294,41
DA:295,41
DA:296,41
DA:297,41
DA:300,40
DA:301,40
DA:302,0
DA:303,1
DA:305,187
DA:307,41
DA:308,41
DA:309,41
DA:310,41
DA:311,41
DA:312,41
DA:313,41
DA:314,41
DA:315,41
DA:317,0
DA:320,41
DA:322,0
DA:325,41
DA:326,41
DA:328,0
DA:331,41
DA:332,41
DA:333,41
DA:334,29
DA:336,12
DA:338,41
DA:340,41
DA:341,0
DA:344,41
DA:345,41
DA:347,0
DA:350,41
DA:352,40
DA:353,40
DA:354,40
DA:355,40
DA:356,40
DA:357,40
DA:358,40
DA:359,40
DA:360,40
DA:361,41
DA:363,187
DA:364,187
DA:365,187
DA:366,187
DA:367,187
DA:368,187
DA:369,187
DA:370,187
DA:371,187
DA:372,187
DA:374,41
DA:377,146
DA:378,0
DA:381,146
DA:382,146
DA:383,146
DA:384,146
DA:386,146
DA:388,146
DA:389,146
DA:390,146
DA:391,146
DA:392,146
DA:393,146
DA:394,146
DA:395,146
DA:396,146
DA:397,187
DA:400,205
DA:401,205
DA:402,574
DA:403,369
DA:404,369
DA:406,205
DA:407,205
DA:409,187
DA:410,187
DA:411,187
DA:412,187
DA:413,187
DA:414,187
DA:415,4
DA:416,183
DA:417,183
DA:419,0
DA:421,187
DA:424,0
DA:425,0
DA:426,0
DA:427,0
DA:428,0
DA:429,0
DA:430,0
DA:432,0
DA:435,484
DA:436,484
DA:437,484
DA:438,484
DA:439,484
DA:441,499
DA:442,499
DA:443,31
DA:444,246
DA:445,222
DA:446,0
DA:448,499
DA:455,1
DA:456,1
DA:457,1
DA:458,1
DA:460,1
DA:463,1
DA:464,1
DA:465,1
DA:466,1
DA:467,1
DA:468,1
DA:471,1
DA:472,1
DA:473,1
DA:475,1
DA:476,1
DA:477,1
DA:478,1
DA:481,1
DA:482,1
DA:483,1
DA:484,1
DA:485,1
DA:486,1
DA:487,1
DA:489,1
DA:490,1
DA:492,1
DA:493,1
DA:494,1
DA:495,1
DA:498,1
DA:499,1
DA:500,1
DA:501,1
DA:502,1
DA:504,1
DA:505,1
DA:506,1
DA:507,1
DA:508,1
DA:511,1
DA:512,1
DA:513,1
DA:515,1
DA:516,1
DA:517,1
DA:518,1
DA:519,1
DA:520,1
DA:522,1
DA:523,1
BRF:0
BRH:0
LF:359
LH:334
end_of_record
SF:/home/matthew/develop/personal/karva/crates/karva_core/src/extensions/fixtures/python.rs
FN:33,_RNvMNtNtNtCs4RrqI5pJN37_10karva_core10extensions8fixtures6pythonNtB2_21FixtureFunctionMarker3new
FN:54,_RNvMsj_NtNtNtCs4RrqI5pJN37_10karva_core10extensions8fixtures6pythonNtB5_21FixtureFunctionMarker8___call__
FN:98,_RNvMsw_NtNtNtCs4RrqI5pJN37_10karva_core10extensions8fixtures6pythonNtB5_25FixtureFunctionDefinition8___call__
FN:110,_RNvNtNtNtCs4RrqI5pJN37_10karva_core10extensions8fixtures6python17fixture_decorator
FN:41,_RNCNvMNtNtNtCs4RrqI5pJN37_10karva_core10extensions8fixtures6pythonNtB4_21FixtureFunctionMarker3new0Ba_
FN:41,_RNCNvMNtNtNtCs1eKvc9ZrgUW_10karva_core10extensions8fixtures6pythonNtB4_21FixtureFunctionMarker3new0Ba_
FN:33,_RNvMNtNtNtCs1eKvc9ZrgUW_10karva_core10extensions8fixtures6pythonNtB2_21FixtureFunctionMarker3new
FN:54,_RNvMsj_NtNtNtCs1eKvc9ZrgUW_10karva_core10extensions8fixtures6pythonNtB5_21FixtureFunctionMarker8___call__
FN:98,_RNvMsw_NtNtNtCs1eKvc9ZrgUW_10karva_core10extensions8fixtures6pythonNtB5_25FixtureFunctionDefinition8___call__
FN:110,_RNvNtNtNtCs1eKvc9ZrgUW_10karva_core10extensions8fixtures6python17fixture_decorator
FNDA:64,_RNvMNtNtNtCs4RrqI5pJN37_10karva_core10extensions8fixtures6pythonNtB2_21FixtureFunctionMarker3new
FNDA:64,_RNvMsj_NtNtNtCs4RrqI5pJN37_10karva_core10extensions8fixtures6pythonNtB5_21FixtureFunctionMarker8___call__
FNDA:96,_RNvMsw_NtNtNtCs4RrqI5pJN37_10karva_core10extensions8fixtures6pythonNtB5_25FixtureFunctionDefinition8___call__
FNDA:64,_RNvNtNtNtCs4RrqI5pJN37_10karva_core10extensions8fixtures6python17fixture_decorator
FNDA:44,_RNCNvMNtNtNtCs4RrqI5pJN37_10karva_core10extensions8fixtures6pythonNtB4_21FixtureFunctionMarker3new0Ba_
FNDA:2,_RNCNvMNtNtNtCs1eKvc9ZrgUW_10karva_core10extensions8fixtures6pythonNtB4_21FixtureFunctionMarker3new0Ba_
FNDA:58,_RNvMNtNtNtCs1eKvc9ZrgUW_10karva_core10extensions8fixtures6pythonNtB2_21FixtureFunctionMarker3new
FNDA:58,_RNvMsj_NtNtNtCs1eKvc9ZrgUW_10karva_core10extensions8fixtures6pythonNtB5_21FixtureFunctionMarker8___call__
FNDA:49,_RNvMsw_NtNtNtCs1eKvc9ZrgUW_10karva_core10extensions8fixtures6pythonNtB5_25FixtureFunctionDefinition8___call__
FNDA:58,_RNvNtNtNtCs1eKvc9ZrgUW_10karva_core10extensions8fixtures6python17fixture_decorator
FNF:5
FNH:5
DA:33,122
DA:34,122
DA:35,122
DA:36,122
DA:37,122
DA:38,122
DA:39,122
DA:40,122
DA:41,122
DA:43,122
DA:44,122
DA:45,122
DA:46,122
DA:47,122
DA:48,122
DA:49,122
DA:54,122
DA:55,122
DA:56,122
DA:57,122
DA:58,122
DA:59,122
DA:60,1
DA:62,121
DA:65,122
DA:66,122
DA:67,122
DA:68,122
DA:69,122
DA:70,122
DA:71,122
DA:73,122
DA:74,122
DA:98,145
DA:99,145
DA:100,145
DA:101,145
DA:102,145
DA:103,145
DA:104,145
DA:105,145
DA:110,122
DA:111,122
DA:112,122
DA:113,122
DA:114,122
DA:115,122
DA:116,122
DA:117,122
DA:118,122
DA:119,122
DA:120,34
DA:121,34
DA:123,88
DA:125,122
BRF:0
BRH:0
LF:56
LH:56
end_of_record
SF:/home/matthew/develop/personal/karva/crates/karva_core/src/extensions/fixtures/traits.rs
FN:17,_RNvYNtNtNtNtCs4RrqI5pJN37_10karva_core9discovery6models6module16DiscoveredModuleNtNtNtNtBa_10extensions8fixtures6traits11HasFixtures8fixturesBa_
FN:68,_RNCNvXNtNtNtCs4RrqI5pJN37_10karva_core10extensions8fixtures6traitsNtNtNtNtBa_9discovery6models6module16DiscoveredModuleNtB4_11HasFixtures11get_fixture0Ba_
FN:51,_RNCNvXNtNtNtCs4RrqI5pJN37_10karva_core10extensions8fixtures6traitsNtNtNtNtBa_9discovery6models6module16DiscoveredModuleNtB4_11HasFixtures12all_fixtures0Ba_
FN:89,_RNCNvXs_NtNtNtCs4RrqI5pJN37_10karva_core10extensions8fixtures6traitsNtNtNtNtBc_9discovery6models7package17DiscoveredPackageNtB6_11HasFixtures11get_fixture0Bc_
FN:102,_RNvXs0_NtNtNtCs4RrqI5pJN37_10karva_core10extensions8fixtures6traitsRNtNtNtNtBb_9discovery6models7package17DiscoveredPackageNtB5_11HasFixtures11get_fixture
FN:94,_RNvXs0_NtNtNtCs4RrqI5pJN37_10karva_core10extensions8fixtures6traitsRNtNtNtNtBb_9discovery6models7package17DiscoveredPackageNtB5_11HasFixtures12all_fixtures
FN:98,_RNvXs0_NtNtNtCs4RrqI5pJN37_10karva_core10extensions8fixtures6traitsRNtNtNtNtBb_9discovery6models7package17DiscoveredPackageNtB5_11HasFixtures14fixture_module
FN:137,_RNvXs3_NtNtNtCs4RrqI5pJN37_10karva_core10extensions8fixtures6traitsNtNtNtNtBb_9discovery6models7package17DiscoveredPackageNtB5_16RequiresFixtures17required_fixtures
FN:87,_RNvXs_NtNtNtCs4RrqI5pJN37_10karva_core10extensions8fixtures6traitsNtNtNtNtBa_9discovery6models7package17DiscoveredPackageNtB4_11HasFixtures11get_fixture
FN:73,_RNvXs_NtNtNtCs4RrqI5pJN37_10karva_core10extensions8fixtures6traitsNtNtNtNtBa_9discovery6models7package17DiscoveredPackageNtB4_11HasFixtures12all_fixtures
FN:83,_RNvXs_NtNtNtCs4RrqI5pJN37_10karva_core10extensions8fixtures6traitsNtNtNtNtBa_9discovery6models7package17DiscoveredPackageNtB4_11HasFixtures14fixture_module
FN:119,_RNvXs1_NtNtNtCs4RrqI5pJN37_10karva_core10extensions8fixtures6traitsNtNtCs2MsX7UgnjKW_15ruff_python_ast9generated15StmtFunctionDefNtB5_16RequiresFixtures17required_fixtures
FN:131,_RNvXs2_NtNtNtCs4RrqI5pJN37_10karva_core10extensions8fixtures6traitsNtB7_7FixtureNtB5_16RequiresFixtures17required_fixtures
FN:17,_RNvYNtNtNtNtCs4RrqI5pJN37_10karva_core9discovery6models7package17DiscoveredPackageNtNtNtNtBa_10extensions8fixtures6traits11HasFixtures8fixturesBa_
FN:17,_RNvYRNtNtNtNtCs4RrqI5pJN37_10karva_core9discovery6models7package17DiscoveredPackageNtNtNtNtBb_10extensions8fixtures6traits11HasFixtures8fixturesBb_
FN:65,_RNvXNtNtNtCs4RrqI5pJN37_10karva_core10extensions8fixtures6traitsNtNtNtNtB8_9discovery6models6module16DiscoveredModuleNtB2_11HasFixtures11get_fixture
FN:44,_RNvXNtNtNtCs4RrqI5pJN37_10karva_core10extensions8fixtures6traitsNtNtNtNtB8_9discovery6models6module16DiscoveredModuleNtB2_11HasFixtures12all_fixtures
FN:61,_RNvXNtNtNtCs4RrqI5pJN37_10karva_core10extensions8fixtures6traitsNtNtNtNtB8_9discovery6models6module16DiscoveredModuleNtB2_11HasFixtures14fixture_module
FN:153,_RNvXs4_NtNtNtCs4RrqI5pJN37_10karva_core10extensions8fixtures6traitsNtNtNtNtBb_9discovery6models6module16DiscoveredModuleNtB5_16RequiresFixtures17required_fixtures
FN:102,_RNvXs0_NtNtNtCs1eKvc9ZrgUW_10karva_core10extensions8fixtures6traitsRNtNtNtNtBb_9discovery6models7package17DiscoveredPackageNtB5_11HasFixtures11get_fixture
FN:94,_RNvXs0_NtNtNtCs1eKvc9ZrgUW_10karva_core10extensions8fixtures6traitsRNtNtNtNtBb_9discovery6models7package17DiscoveredPackageNtB5_11HasFixtures12all_fixtures
FN:98,_RNvXs0_NtNtNtCs1eKvc9ZrgUW_10karva_core10extensions8fixtures6traitsRNtNtNtNtBb_9discovery6models7package17DiscoveredPackageNtB5_11HasFixtures14fixture_module
FN:137,_RNvXs3_NtNtNtCs1eKvc9ZrgUW_10karva_core10extensions8fixtures6traitsNtNtNtNtBb_9discovery6models7package17DiscoveredPackageNtB5_16RequiresFixtures17required_fixtures
FN:87,_RNvXs_NtNtNtCs1eKvc9ZrgUW_10karva_core10extensions8fixtures6traitsNtNtNtNtBa_9discovery6models7package17DiscoveredPackageNtB4_11HasFixtures11get_fixture
FN:73,_RNvXs_NtNtNtCs1eKvc9ZrgUW_10karva_core10extensions8fixtures6traitsNtNtNtNtBa_9discovery6models7package17DiscoveredPackageNtB4_11HasFixtures12all_fixtures
FN:83,_RNvXs_NtNtNtCs1eKvc9ZrgUW_10karva_core10extensions8fixtures6traitsNtNtNtNtBa_9discovery6models7package17DiscoveredPackageNtB4_11HasFixtures14fixture_module
FN:68,_RNCNvXNtNtNtCs1eKvc9ZrgUW_10karva_core10extensions8fixtures6traitsNtNtNtNtBa_9discovery6models6module16DiscoveredModuleNtB4_11HasFixtures11get_fixture0Ba_
FN:51,_RNCNvXNtNtNtCs1eKvc9ZrgUW_10karva_core10extensions8fixtures6traitsNtNtNtNtBa_9discovery6models6module16DiscoveredModuleNtB4_11HasFixtures12all_fixtures0Ba_
FN:89,_RNCNvXs_NtNtNtCs1eKvc9ZrgUW_10karva_core10extensions8fixtures6traitsNtNtNtNtBc_9discovery6models7package17DiscoveredPackageNtB6_11HasFixtures11get_fixture0Bc_
FN:131,_RNvXs2_NtNtNtCs1eKvc9ZrgUW_10karva_core10extensions8fixtures6traitsNtB7_7FixtureNtB5_16RequiresFixtures17required_fixtures
FN:17,_RNvYNtNtNtNtCs1eKvc9ZrgUW_10karva_core9discovery6models6module16DiscoveredModuleNtNtNtNtBa_10extensions8fixtures6traits11HasFixtures8fixturesBa_
FN:65,_RNvXNtNtNtCs1eKvc9ZrgUW_10karva_core10extensions8fixtures6traitsNtNtNtNtB8_9discovery6models6module16DiscoveredModuleNtB2_11HasFixtures11get_fixture
FN:44,_RNvXNtNtNtCs1eKvc9ZrgUW_10karva_core10extensions8fixtures6traitsNtNtNtNtB8_9discovery6models6module16DiscoveredModuleNtB2_11HasFixtures12all_fixtures
FN:61,_RNvXNtNtNtCs1eKvc9ZrgUW_10karva_core10extensions8fixtures6traitsNtNtNtNtB8_9discovery6models6module16DiscoveredModuleNtB2_11HasFixtures14fixture_module
FN:153,_RNvXs4_NtNtNtCs1eKvc9ZrgUW_10karva_core10extensions8fixtures6traitsNtNtNtNtBb_9discovery6models6module16DiscoveredModuleNtB5_16RequiresFixtures17required_fixtures
FN:110,_RNvYNtNtNtNtCs1eKvc9ZrgUW_10karva_core9discovery6models8function12TestFunctionNtNtNtNtBa_10extensions8fixtures6traits16RequiresFixtures12uses_fixtureBa_
FN:17,_RNvYNtNtNtNtCs1eKvc9ZrgUW_10karva_core9discovery6models7package17DiscoveredPackageNtNtNtNtBa_10extensions8fixtures6traits11HasFixtures8fixturesBa_
FN:17,_RNvYRNtNtNtNtCs1eKvc9ZrgUW_10karva_core9discovery6models7package17DiscoveredPackageNtNtNtNtBb_10extensions8fixtures6traits11HasFixtures8fixturesBb_
FN:119,_RNvXs1_NtNtNtCs1eKvc9ZrgUW_10karva_core10extensions8fixtures6traitsNtNtCs2MsX7UgnjKW_15ruff_python_ast9generated15StmtFunctionDefNtB5_16RequiresFixtures17required_fixtures
FNDA:386,_RNvYNtNtNtNtCs4RrqI5pJN37_10karva_core9discovery6models6module16DiscoveredModuleNtNtNtNtBa_10extensions8fixtures6traits11HasFixtures8fixturesBa_
FNDA:2,_RNCNvXNtNtNtCs4RrqI5pJN37_10karva_core10extensions8fixtures6traitsNtNtNtNtBa_9discovery6models6module16DiscoveredModuleNtB4_11HasFixtures11get_fixture0Ba_
FNDA:281,_RNCNvXNtNtNtCs4RrqI5pJN37_10karva_core10extensions8fixtures6traitsNtNtNtNtBa_9discovery6models6module16DiscoveredModuleNtB4_11HasFixtures12all_fixtures0Ba_
FNDA:2,_RNCNvXs_NtNtNtCs4RrqI5pJN37_10karva_core10extensions8fixtures6traitsNtNtNtNtBc_9discovery6models7package17DiscoveredPackageNtB6_11HasFixtures11get_fixture0Bc_
FNDA:0,_RNvXs0_NtNtNtCs4RrqI5pJN37_10karva_core10extensions8fixtures6traitsRNtNtNtNtBb_9discovery6models7package17DiscoveredPackageNtB5_11HasFixtures11get_fixture
FNDA:1138,_RNvXs0_NtNtNtCs4RrqI5pJN37_10karva_core10extensions8fixtures6traitsRNtNtNtNtBb_9discovery6models7package17DiscoveredPackageNtB5_11HasFixtures12all_fixtures
FNDA:16,_RNvXs0_NtNtNtCs4RrqI5pJN37_10karva_core10extensions8fixtures6traitsRNtNtNtNtBb_9discovery6models7package17DiscoveredPackageNtB5_11HasFixtures14fixture_module
FNDA:796,_RNvXs3_NtNtNtCs4RrqI5pJN37_10karva_core10extensions8fixtures6traitsNtNtNtNtBb_9discovery6models7package17DiscoveredPackageNtB5_16RequiresFixtures17required_fixtures
FNDA:54,_RNvXs_NtNtNtCs4RrqI5pJN37_10karva_core10extensions8fixtures6traitsNtNtNtNtBa_9discovery6models7package17DiscoveredPackageNtB4_11HasFixtures11get_fixture
FNDA:1455,_RNvXs_NtNtNtCs4RrqI5pJN37_10karva_core10extensions8fixtures6traitsNtNtNtNtBa_9discovery6models7package17DiscoveredPackageNtB4_11HasFixtures12all_fixtures
FNDA:22,_RNvXs_NtNtNtCs4RrqI5pJN37_10karva_core10extensions8fixtures6traitsNtNtNtNtBa_9discovery6models7package17DiscoveredPackageNtB4_11HasFixtures14fixture_module
FNDA:2083,_RNvXs1_NtNtNtCs4RrqI5pJN37_10karva_core10extensions8fixtures6traitsNtNtCs2MsX7UgnjKW_15ruff_python_ast9generated15StmtFunctionDefNtB5_16RequiresFixtures17required_fixtures
FNDA:650,_RNvXs2_NtNtNtCs4RrqI5pJN37_10karva_core10extensions8fixtures6traitsNtB7_7FixtureNtB5_16RequiresFixtures17required_fixtures
FNDA:311,_RNvYNtNtNtNtCs4RrqI5pJN37_10karva_core9discovery6models7package17DiscoveredPackageNtNtNtNtBa_10extensions8fixtures6traits11HasFixtures8fixturesBa_
FNDA:1122,_RNvYRNtNtNtNtCs4RrqI5pJN37_10karva_core9discovery6models7package17DiscoveredPackageNtNtNtNtBb_10extensions8fixtures6traits11HasFixtures8fixturesBb_
FNDA:2,_RNvXNtNtNtCs4RrqI5pJN37_10karva_core10extensions8fixtures6traitsNtNtNtNtB8_9discovery6models6module16DiscoveredModuleNtB2_11HasFixtures11get_fixture
FNDA:580,_RNvXNtNtNtCs4RrqI5pJN37_10karva_core10extensions8fixtures6traitsNtNtNtNtB8_9discovery6models6module16DiscoveredModuleNtB2_11HasFixtures12all_fixtures
FNDA:104,_RNvXNtNtNtCs4RrqI5pJN37_10karva_core10extensions8fixtures6traitsNtNtNtNtB8_9discovery6models6module16DiscoveredModuleNtB2_11HasFixtures14fixture_module
FNDA:695,_RNvXs4_NtNtNtCs4RrqI5pJN37_10karva_core10extensions8fixtures6traitsNtNtNtNtBb_9discovery6models6module16DiscoveredModuleNtB5_16RequiresFixtures17required_fixtures
FNDA:0,_RNvXs0_NtNtNtCs1eKvc9ZrgUW_10karva_core10extensions8fixtures6traitsRNtNtNtNtBb_9discovery6models7package17DiscoveredPackageNtB5_11HasFixtures11get_fixture
FNDA:14,_RNvXs0_NtNtNtCs1eKvc9ZrgUW_10karva_core10extensions8fixtures6traitsRNtNtNtNtBb_9discovery6models7package17DiscoveredPackageNtB5_11HasFixtures12all_fixtures
FNDA:1,_RNvXs0_NtNtNtCs1eKvc9ZrgUW_10karva_core10extensions8fixtures6traitsRNtNtNtNtBb_9discovery6models7package17DiscoveredPackageNtB5_11HasFixtures14fixture_module
FNDA:10,_RNvXs3_NtNtNtCs1eKvc9ZrgUW_10karva_core10extensions8fixtures6traitsNtNtNtNtBb_9discovery6models7package17DiscoveredPackageNtB5_16RequiresFixtures17required_fixtures
FNDA:34,_RNvXs_NtNtNtCs1eKvc9ZrgUW_10karva_core10extensions8fixtures6traitsNtNtNtNtBa_9discovery6models7package17DiscoveredPackageNtB4_11HasFixtures11get_fixture
FNDA:96,_RNvXs_NtNtNtCs1eKvc9ZrgUW_10karva_core10extensions8fixtures6traitsNtNtNtNtBa_9discovery6models7package17DiscoveredPackageNtB4_11HasFixtures12all_fixtures
FNDA:46,_RNvXs_NtNtNtCs1eKvc9ZrgUW_10karva_core10extensions8fixtures6traitsNtNtNtNtBa_9discovery6models7package17DiscoveredPackageNtB4_11HasFixtures14fixture_module
FNDA:54,_RNCNvXNtNtNtCs1eKvc9ZrgUW_10karva_core10extensions8fixtures6traitsNtNtNtNtBa_9discovery6models6module16DiscoveredModuleNtB4_11HasFixtures11get_fixture0Ba_
FNDA:82,_RNCNvXNtNtNtCs1eKvc9ZrgUW_10karva_core10extensions8fixtures6traitsNtNtNtNtBa_9discovery6models6module16DiscoveredModuleNtB4_11HasFixtures12all_fixtures0Ba_
FNDA:34,_RNCNvXs_NtNtNtCs1eKvc9ZrgUW_10karva_core10extensions8fixtures6traitsNtNtNtNtBc_9discovery6models7package17DiscoveredPackageNtB6_11HasFixtures11get_fixture0Bc_
FNDA:127,_RNvXs2_NtNtNtCs1eKvc9ZrgUW_10karva_core10extensions8fixtures6traitsNtB7_7FixtureNtB5_16RequiresFixtures17required_fixtures
FNDA:5,_RNvYNtNtNtNtCs1eKvc9ZrgUW_10karva_core9discovery6models6module16DiscoveredModuleNtNtNtNtBa_10extensions8fixtures6traits11HasFixtures8fixturesBa_
FNDA:35,_RNvXNtNtNtCs1eKvc9ZrgUW_10karva_core10extensions8fixtures6traitsNtNtNtNtB8_9discovery6models6module16DiscoveredModuleNtB2_11HasFixtures11get_fixture
FNDA:88,_RNvXNtNtNtCs1eKvc9ZrgUW_10karva_core10extensions8fixtures6traitsNtNtNtNtB8_9discovery6models6module16DiscoveredModuleNtB2_11HasFixtures12all_fixtures
FNDA:3,_RNvXNtNtNtCs1eKvc9ZrgUW_10karva_core10extensions8fixtures6traitsNtNtNtNtB8_9discovery6models6module16DiscoveredModuleNtB2_11HasFixtures14fixture_module
FNDA:8,_RNvXs4_NtNtNtCs1eKvc9ZrgUW_10karva_core10extensions8fixtures6traitsNtNtNtNtBb_9discovery6models6module16DiscoveredModuleNtB5_16RequiresFixtures17required_fixtures
FNDA:3,_RNvYNtNtNtNtCs1eKvc9ZrgUW_10karva_core9discovery6models8function12TestFunctionNtNtNtNtBa_10extensions8fixtures6traits16RequiresFixtures12uses_fixtureBa_
FNDA:37,_RNvYNtNtNtNtCs1eKvc9ZrgUW_10karva_core9discovery6models7package17DiscoveredPackageNtNtNtNtBa_10extensions8fixtures6traits11HasFixtures8fixturesBa_
FNDA:13,_RNvYRNtNtNtNtCs1eKvc9ZrgUW_10karva_core9discovery6models7package17DiscoveredPackageNtNtNtNtBb_10extensions8fixtures6traits11HasFixtures8fixturesBb_
FNDA:167,_RNvXs1_NtNtNtCs1eKvc9ZrgUW_10karva_core10extensions8fixtures6traitsNtNtCs2MsX7UgnjKW_15ruff_python_ast9generated15StmtFunctionDefNtB5_16RequiresFixtures17required_fixtures
FNF:18
FNH:17
DA:17,1874
DA:18,1874
DA:19,1874
DA:20,1874
DA:21,1874
DA:22,1874
DA:23,1874
DA:24,323
DA:25,189
DA:26,189
DA:28,1874
DA:29,1874
DA:44,668
DA:45,668
DA:46,175
DA:49,493
DA:50,493
DA:51,493
DA:52,363
DA:53,34
DA:55,329
DA:57,363
DA:58,493
DA:59,668
DA:61,107
DA:62,107
DA:63,107
DA:65,37
DA:66,37
DA:67,37
DA:68,56
DA:69,37
DA:73,1551
DA:74,1551
DA:76,1551
DA:77,170
DA:78,1381
DA:80,1551
DA:81,1551
DA:83,68
DA:84,68
DA:85,68
DA:87,88
DA:88,88
DA:89,88
DA:90,88
DA:94,1152
DA:95,1152
DA:96,1152
DA:98,17
DA:99,17
DA:100,17
DA:102,0
DA:103,0
DA:104,0
DA:110,3
DA:111,3
DA:112,3
DA:113,3
DA:119,2250
DA:120,2250
DA:122,2250
DA:123,1360
DA:124,1360
DA:126,2250
DA:127,2250
DA:131,777
DA:132,777
DA:133,777
DA:137,806
DA:138,806
DA:140,806
DA:141,545
DA:142,545
DA:144,806
DA:145,334
DA:146,334
DA:148,806
DA:149,806
DA:153,703
DA:154,703
DA:156,846
DA:157,846
DA:158,846
DA:160,703
DA:161,406
DA:162,406
DA:164,703
DA:165,703
BRF:0
BRH:0
LF:92
LH:89
end_of_record
SF:/home/matthew/develop/personal/karva/crates/karva_core/src/extensions/fixtures/utils.rs
FN:13,_RNvNtNtNtCs4RrqI5pJN37_10karva_core10extensions8fixtures5utils23handle_missing_fixtures
FN:58,_RNvNtNtNtCs4RrqI5pJN37_10karva_core10extensions8fixtures5utils28missing_arguments_from_error
FN:61,_RNCNCNvNtNtNtCs4RrqI5pJN37_10karva_core10extensions8fixtures5utils28missing_arguments_from_error00Bb_
FN:31,_RNCNvNtNtNtCs4RrqI5pJN37_10karva_core10extensions8fixtures5utils23handle_missing_fixtures0B9_
FN:60,_RNCNvNtNtNtCs4RrqI5pJN37_10karva_core10extensions8fixtures5utils28missing_arguments_from_error0B9_
FN:65,_RNCNvNtNtNtCs4RrqI5pJN37_10karva_core10extensions8fixtures5utils28missing_arguments_from_errors_0B9_
FN:48,_RNCNvNtNtNtCs4RrqI5pJN37_10karva_core10extensions8fixtures5utils8RE_MULTI0B9_
FN:51,_RNCNvNtNtNtCs4RrqI5pJN37_10karva_core10extensions8fixtures5utils9RE_SINGLE0B9_
FN:61,_RNCNCNvNtNtNtCs1eKvc9ZrgUW_10karva_core10extensions8fixtures5utils28missing_arguments_from_error00Bb_
FN:31,_RNCNvNtNtNtCs1eKvc9ZrgUW_10karva_core10extensions8fixtures5utils23handle_missing_fixtures0B9_
FN:60,_RNCNvNtNtNtCs1eKvc9ZrgUW_10karva_core10extensions8fixtures5utils28missing_arguments_from_error0B9_
FN:65,_RNCNvNtNtNtCs1eKvc9ZrgUW_10karva_core10extensions8fixtures5utils28missing_arguments_from_errors_0B9_
FN:48,_RNCNvNtNtNtCs1eKvc9ZrgUW_10karva_core10extensions8fixtures5utils8RE_MULTI0B9_
FN:51,_RNCNvNtNtNtCs1eKvc9ZrgUW_10karva_core10extensions8fixtures5utils9RE_SINGLE0B9_
FN:13,_RNvNtNtNtCs1eKvc9ZrgUW_10karva_core10extensions8fixtures5utils23handle_missing_fixtures
FN:58,_RNvNtNtNtCs1eKvc9ZrgUW_10karva_core10extensions8fixtures5utils28missing_arguments_from_error
FN:85,_RNvNtNtNtNtCs1eKvc9ZrgUW_10karva_core10extensions8fixtures5utils5testss_33test_missing_arguments_from_error
FN:95,_RNvNtNtNtNtCs1eKvc9ZrgUW_10karva_core10extensions8fixtures5utils5testss_40test_missing_arguments_from_error_single
FNDA:5,_RNvNtNtNtCs4RrqI5pJN37_10karva_core10extensions8fixtures5utils23handle_missing_fixtures
FNDA:5,_RNvNtNtNtCs4RrqI5pJN37_10karva_core10extensions8fixtures5utils28missing_arguments_from_error
FNDA:0,_RNCNCNvNtNtNtCs4RrqI5pJN37_10karva_core10extensions8fixtures5utils28missing_arguments_from_error00Bb_
FNDA:6,_RNCNvNtNtNtCs4RrqI5pJN37_10karva_core10extensions8fixtures5utils23handle_missing_fixtures0B9_
FNDA:0,_RNCNvNtNtNtCs4RrqI5pJN37_10karva_core10extensions8fixtures5utils28missing_arguments_from_error0B9_
FNDA:5,_RNCNvNtNtNtCs4RrqI5pJN37_10karva_core10extensions8fixtures5utils28missing_arguments_from_errors_0B9_
FNDA:1,_RNCNvNtNtNtCs4RrqI5pJN37_10karva_core10extensions8fixtures5utils8RE_MULTI0B9_
FNDA:0,_RNCNvNtNtNtCs4RrqI5pJN37_10karva_core10extensions8fixtures5utils9RE_SINGLE0B9_
FNDA:0,_RNCNCNvNtNtNtCs1eKvc9ZrgUW_10karva_core10extensions8fixtures5utils28missing_arguments_from_error00Bb_
FNDA:0,_RNCNvNtNtNtCs1eKvc9ZrgUW_10karva_core10extensions8fixtures5utils23handle_missing_fixtures0B9_
FNDA:0,_RNCNvNtNtNtCs1eKvc9ZrgUW_10karva_core10extensions8fixtures5utils28missing_arguments_from_error0B9_
FNDA:2,_RNCNvNtNtNtCs1eKvc9ZrgUW_10karva_core10extensions8fixtures5utils28missing_arguments_from_errors_0B9_
FNDA:1,_RNCNvNtNtNtCs1eKvc9ZrgUW_10karva_core10extensions8fixtures5utils8RE_MULTI0B9_
FNDA:0,_RNCNvNtNtNtCs1eKvc9ZrgUW_10karva_core10extensions8fixtures5utils9RE_SINGLE0B9_
FNDA:0,_RNvNtNtNtCs1eKvc9ZrgUW_10karva_core10extensions8fixtures5utils23handle_missing_fixtures
FNDA:2,_RNvNtNtNtCs1eKvc9ZrgUW_10karva_core10extensions8fixtures5utils28missing_arguments_from_error
FNDA:1,_RNvNtNtNtNtCs1eKvc9ZrgUW_10karva_core10extensions8fixtures5utils5testss_33test_missing_arguments_from_error
FNDA:1,_RNvNtNtNtNtCs1eKvc9ZrgUW_10karva_core10extensions8fixtures5utils5testss_40test_missing_arguments_from_error_single
FNF:10
FNH:7
DA:13,5
DA:14,5
DA:15,5
DA:16,5
DA:17,5
DA:22,5
DA:23,5
DA:25,5
DA:26,5
DA:27,5
DA:29,5
DA:30,5
DA:31,6
DA:32,5
DA:33,5
DA:35,5
DA:36,0
DA:38,5
DA:39,5
DA:40,5
DA:41,5
DA:42,5
DA:43,5
DA:45,5
DA:48,2
DA:51,0
DA:58,7
DA:59,7
DA:60,0
DA:61,0
DA:62,0
DA:63,0
DA:64,0
DA:65,7
DA:66,7
DA:67,7
DA:68,7
DA:69,8
DA:70,8
DA:71,8
DA:72,8
DA:73,8
DA:75,7
DA:76,7
DA:78,7
DA:85,1
DA:86,1
DA:87,1
DA:88,1
DA:90,1
DA:92,1
DA:95,1
DA:96,1
DA:97,1
DA:98,1
DA:99,1
BRF:0
BRH:0
LF:58
LH:50
end_of_record
SF:/home/matthew/develop/personal/karva/crates/karva_core/src/extensions/tags/expect_fail.rs
FN:26,_RNvMNtNtNtCs4RrqI5pJN37_10karva_core10extensions4tags11expect_failNtB2_13ExpectFailTag18should_expect_fail
FN:34,_RNvMNtNtNtCs4RrqI5pJN37_10karva_core10extensions4tags11expect_failNtB2_13ExpectFailTag20try_from_pytest_mark
FN:15,_RNvMNtNtNtCs4RrqI5pJN37_10karva_core10extensions4tags11expect_failNtB2_13ExpectFailTag3new
FN:19,_RNvMNtNtNtCs4RrqI5pJN37_10karva_core10extensions4tags11expect_failNtB2_13ExpectFailTag6reason
FN:79,_RNvXs_NtNtNtCs4RrqI5pJN37_10karva_core10extensions4tags11expect_failNtB4_13ExpectFailTagINtNtCs3vi8RLxhvdw_4core7convert7TryFromRINtNtCsaGZDKDLuEaS_4pyo38instance5BoundNtNtNtB28_5types3any5PyAnyEE8try_from
FN:63,_RNCNCNCNvMNtNtNtCs4RrqI5pJN37_10karva_core10extensions4tags11expect_failNtB8_13ExpectFailTag20try_from_pytest_mark000Be_
FN:60,_RNCNCNvMNtNtNtCs4RrqI5pJN37_10karva_core10extensions4tags11expect_failNtB6_13ExpectFailTag20try_from_pytest_mark00Bc_
FN:56,_RNCNvMNtNtNtCs4RrqI5pJN37_10karva_core10extensions4tags11expect_failNtB4_13ExpectFailTag20try_from_pytest_mark0Ba_
FN:69,_RNCNvMNtNtNtCs4RrqI5pJN37_10karva_core10extensions4tags11expect_failNtB4_13ExpectFailTag20try_from_pytest_marks_0Ba_
FN:26,_RNvMNtNtNtCs1eKvc9ZrgUW_10karva_core10extensions4tags11expect_failNtB2_13ExpectFailTag18should_expect_fail
FN:34,_RNvMNtNtNtCs1eKvc9ZrgUW_10karva_core10extensions4tags11expect_failNtB2_13ExpectFailTag20try_from_pytest_mark
FN:15,_RNvMNtNtNtCs1eKvc9ZrgUW_10karva_core10extensions4tags11expect_failNtB2_13ExpectFailTag3new
FN:19,_RNvMNtNtNtCs1eKvc9ZrgUW_10karva_core10extensions4tags11expect_failNtB2_13ExpectFailTag6reason
FN:79,_RNvXs_NtNtNtCs1eKvc9ZrgUW_10karva_core10extensions4tags11expect_failNtB4_13ExpectFailTagINtNtCs3vi8RLxhvdw_4core7convert7TryFromRINtNtCsaGZDKDLuEaS_4pyo38instance5BoundNtNtNtB28_5types3any5PyAnyEE8try_from
FN:63,_RNCNCNCNvMNtNtNtCs1eKvc9ZrgUW_10karva_core10extensions4tags11expect_failNtB8_13ExpectFailTag20try_from_pytest_mark000Be_
FN:60,_RNCNCNvMNtNtNtCs1eKvc9ZrgUW_10karva_core10extensions4tags11expect_failNtB6_13ExpectFailTag20try_from_pytest_mark00Bc_
FN:56,_RNCNvMNtNtNtCs1eKvc9ZrgUW_10karva_core10extensions4tags11expect_failNtB4_13ExpectFailTag20try_from_pytest_mark0Ba_
FN:69,_RNCNvMNtNtNtCs1eKvc9ZrgUW_10karva_core10extensions4tags11expect_failNtB4_13ExpectFailTag20try_from_pytest_marks_0Ba_
FNDA:28,_RNvMNtNtNtCs4RrqI5pJN37_10karva_core10extensions4tags11expect_failNtB2_13ExpectFailTag18should_expect_fail
FNDA:11,_RNvMNtNtNtCs4RrqI5pJN37_10karva_core10extensions4tags11expect_failNtB2_13ExpectFailTag20try_from_pytest_mark
FNDA:17,_RNvMNtNtNtCs4RrqI5pJN37_10karva_core10extensions4tags11expect_failNtB2_13ExpectFailTag3new
FNDA:5,_RNvMNtNtNtCs4RrqI5pJN37_10karva_core10extensions4tags11expect_failNtB2_13ExpectFailTag6reason
FNDA:11,_RNvXs_NtNtNtCs4RrqI5pJN37_10karva_core10extensions4tags11expect_failNtB4_13ExpectFailTagINtNtCs3vi8RLxhvdw_4core7convert7TryFromRINtNtCsaGZDKDLuEaS_4pyo38instance5BoundNtNtNtB28_5types3any5PyAnyEE8try_from
FNDA:0,_RNCNCNCNvMNtNtNtCs4RrqI5pJN37_10karva_core10extensions4tags11expect_failNtB8_13ExpectFailTag20try_from_pytest_mark000Be_
FNDA:3,_RNCNCNvMNtNtNtCs4RrqI5pJN37_10karva_core10extensions4tags11expect_failNtB6_13ExpectFailTag20try_from_pytest_mark00Bc_
FNDA:3,_RNCNvMNtNtNtCs4RrqI5pJN37_10karva_core10extensions4tags11expect_failNtB4_13ExpectFailTag20try_from_pytest_mark0Ba_
FNDA:8,_RNCNvMNtNtNtCs4RrqI5pJN37_10karva_core10extensions4tags11expect_failNtB4_13ExpectFailTag20try_from_pytest_marks_0Ba_
FNDA:0,_RNvMNtNtNtCs1eKvc9ZrgUW_10karva_core10extensions4tags11expect_failNtB2_13ExpectFailTag18should_expect_fail
FNDA:0,_RNvMNtNtNtCs1eKvc9ZrgUW_10karva_core10extensions4tags11expect_failNtB2_13ExpectFailTag20try_from_pytest_mark
FNDA:0,_RNvMNtNtNtCs1eKvc9ZrgUW_10karva_core10extensions4tags11expect_failNtB2_13ExpectFailTag3new
FNDA:0,_RNvMNtNtNtCs1eKvc9ZrgUW_10karva_core10extensions4tags11expect_failNtB2_13ExpectFailTag6reason
FNDA:0,_RNvXs_NtNtNtCs1eKvc9ZrgUW_10karva_core10extensions4tags11expect_failNtB4_13ExpectFailTagINtNtCs3vi8RLxhvdw_4core7convert7TryFromRINtNtCsaGZDKDLuEaS_4pyo38instance5BoundNtNtNtB28_5types3any5PyAnyEE8try_from
FNDA:0,_RNCNCNCNvMNtNtNtCs1eKvc9ZrgUW_10karva_core10extensions4tags11expect_failNtB8_13ExpectFailTag20try_from_pytest_mark000Be_
FNDA:0,_RNCNCNvMNtNtNtCs1eKvc9ZrgUW_10karva_core10extensions4tags11expect_failNtB6_13ExpectFailTag20try_from_pytest_mark00Bc_
FNDA:0,_RNCNvMNtNtNtCs1eKvc9ZrgUW_10karva_core10extensions4tags11expect_failNtB4_13ExpectFailTag20try_from_pytest_mark0Ba_
FNDA:0,_RNCNvMNtNtNtCs1eKvc9ZrgUW_10karva_core10extensions4tags11expect_failNtB4_13ExpectFailTag20try_from_pytest_marks_0Ba_
FNF:9
FNH:8
DA:15,17
DA:16,17
DA:17,17
DA:19,5
DA:20,5
DA:21,5
DA:26,28
DA:27,28
DA:28,18
DA:30,10
DA:32,28
DA:34,11
DA:35,11
DA:36,11
DA:39,11
DA:40,11
DA:41,11
DA:42,7
DA:43,7
DA:44,7
DA:45,7
DA:48,0
DA:49,0
DA:50,0
DA:52,0
DA:55,11
DA:56,3
DA:57,3
DA:59,3
DA:60,3
DA:61,3
DA:62,3
DA:63,3
DA:64,3
DA:66,0
DA:68,3
DA:69,8
DA:72,11
DA:73,11
DA:79,11
DA:80,11
DA:81,11
BRF:0
BRH:0
LF:44
LH:38
end_of_record
SF:/home/matthew/develop/personal/karva/crates/karva_core/src/extensions/tags/mod.rs
FN:83,_RNCNvMs0_NtNtCs4RrqI5pJN37_10karva_core10extensions4tagsNtB7_4Tags11from_py_any0Bb_
FN:32,_RNvMNtNtCs4RrqI5pJN37_10karva_core10extensions4tagsNtB2_3Tag20try_from_pytest_mark
FN:78,_RNvMs0_NtNtCs4RrqI5pJN37_10karva_core10extensions4tagsNtB5_4Tags11from_py_any
FN:177,_RNvMs0_NtNtCs4RrqI5pJN37_10karva_core10extensions4tagsNtB5_4Tags15expect_fail_tag
FN:132,_RNvMs0_NtNtCs4RrqI5pJN37_10karva_core10extensions4tagsNtB5_4Tags16parametrize_args
FN:110,_RNvMs0_NtNtCs4RrqI5pJN37_10karva_core10extensions4tagsNtB5_4Tags20from_pytest_function
FN:156,_RNvMs0_NtNtCs4RrqI5pJN37_10karva_core10extensions4tagsNtB5_4Tags23required_fixtures_names
FN:74,_RNvMs0_NtNtCs4RrqI5pJN37_10karva_core10extensions4tagsNtB5_4Tags3new
FN:167,_RNvMs0_NtNtCs4RrqI5pJN37_10karva_core10extensions4tagsNtB5_4Tags8skip_tag
FN:46,_RNvXs_NtNtCs4RrqI5pJN37_10karva_core10extensions4tagsNtB4_3TagINtNtCs3vi8RLxhvdw_4core7convert4FromRNtNtB4_6python5PyTagE4from
FN:212,_RNvNtNtNtCs1eKvc9ZrgUW_10karva_core10extensions4tags5tests18get_skip_decorator
FN:196,_RNvNtNtNtCs1eKvc9ZrgUW_10karva_core10extensions4tags5tests25get_parametrize_decorator
FN:204,_RNvNtNtNtCs1eKvc9ZrgUW_10karva_core10extensions4tags5tests25get_usefixtures_decorator
FN:83,_RNCNvMs0_NtNtCs1eKvc9ZrgUW_10karva_core10extensions4tagsNtB7_4Tags11from_py_any0Bb_
FN:529,_RNCNvNtNtNtCs1eKvc9ZrgUW_10karva_core10extensions4tags5tests18test_no_decorators0B9_
FN:435,_RNCNvNtNtNtCs1eKvc9ZrgUW_10karva_core10extensions4tags5tests29test_empty_parametrize_values0B9_
FN:648,_RNCNvNtNtNtCs1eKvc9ZrgUW_10karva_core10extensions4tags5tests29test_skip_mark_without_reason0B9_
FN:261,_RNCNvNtNtNtCs1eKvc9ZrgUW_10karva_core10extensions4tags5tests30test_parametrize_args_two_args0B9_
FN:347,_RNCNvNtNtNtCs1eKvc9ZrgUW_10karva_core10extensions4tags5tests30test_use_fixtures_names_single0B9_
FN:222,_RNCNvNtNtNtCs1eKvc9ZrgUW_10karva_core10extensions4tags5tests32test_parametrize_args_single_arg0B9_
FN:586,_RNCNvNtNtNtCs1eKvc9ZrgUW_10karva_core10extensions4tags5tests32test_skip_mark_with_reason_kwarg0B9_
FN:374,_RNCNvNtNtNtCs1eKvc9ZrgUW_10karva_core10extensions4tags5tests32test_use_fixtures_names_multiple0B9_
FN:552,_RNCNvNtNtNtCs1eKvc9ZrgUW_10karva_core10extensions4tags5tests33test_single_arg_tuple_parametrize0B9_
FN:494,_RNCNvNtNtNtCs1eKvc9ZrgUW_10karva_core10extensions4tags5tests35test_complex_parametrize_data_types0B9_
FN:462,_RNCNvNtNtNtCs1eKvc9ZrgUW_10karva_core10extensions4tags5tests35test_mixed_parametrize_and_fixtures0B9_
FN:300,_RNCNvNtNtNtCs1eKvc9ZrgUW_10karva_core10extensions4tags5tests35test_parametrize_args_multiple_tags0B9_
FN:617,_RNCNvNtNtNtCs1eKvc9ZrgUW_10karva_core10extensions4tags5tests37test_skip_mark_with_positional_reason0B9_
FN:401,_RNCNvNtNtNtCs1eKvc9ZrgUW_10karva_core10extensions4tags5tests37test_use_fixtures_names_multiple_tags0B9_
FN:32,_RNvMNtNtCs1eKvc9ZrgUW_10karva_core10extensions4tagsNtB2_3Tag20try_from_pytest_mark
FN:78,_RNvMs0_NtNtCs1eKvc9ZrgUW_10karva_core10extensions4tagsNtB5_4Tags11from_py_any
FN:177,_RNvMs0_NtNtCs1eKvc9ZrgUW_10karva_core10extensions4tagsNtB5_4Tags15expect_fail_tag
FN:132,_RNvMs0_NtNtCs1eKvc9ZrgUW_10karva_core10extensions4tagsNtB5_4Tags16parametrize_args
FN:110,_RNvMs0_NtNtCs1eKvc9ZrgUW_10karva_core10extensions4tagsNtB5_4Tags20from_pytest_function
FN:156,_RNvMs0_NtNtCs1eKvc9ZrgUW_10karva_core10extensions4tagsNtB5_4Tags23required_fixtures_names
FN:74,_RNvMs0_NtNtCs1eKvc9ZrgUW_10karva_core10extensions4tagsNtB5_4Tags3new
FN:167,_RNvMs0_NtNtCs1eKvc9ZrgUW_10karva_core10extensions4tagsNtB5_4Tags8skip_tag
FN:46,_RNvXs_NtNtCs1eKvc9ZrgUW_10karva_core10extensions4tagsNtB4_3TagINtNtCs3vi8RLxhvdw_4core7convert4FromRNtNtB4_6python5PyTagE4from
FNDA:211,_RNCNvMs0_NtNtCs4RrqI5pJN37_10karva_core10extensions4tagsNtB7_4Tags11from_py_any0Bb_
FNDA:31,_RNvMNtNtCs4RrqI5pJN37_10karva_core10extensions4tagsNtB2_3Tag20try_from_pytest_mark
FNDA:211,_RNvMs0_NtNtCs4RrqI5pJN37_10karva_core10extensions4tagsNtB5_4Tags11from_py_any
FNDA:251,_RNvMs0_NtNtCs4RrqI5pJN37_10karva_core10extensions4tagsNtB5_4Tags15expect_fail_tag
FNDA:206,_RNvMs0_NtNtCs4RrqI5pJN37_10karva_core10extensions4tagsNtB5_4Tags16parametrize_args
FNDA:33,_RNvMs0_NtNtCs4RrqI5pJN37_10karva_core10extensions4tagsNtB5_4Tags20from_pytest_function
FNDA:1274,_RNvMs0_NtNtCs4RrqI5pJN37_10karva_core10extensions4tagsNtB5_4Tags23required_fixtures_names
FNDA:49,_RNvMs0_NtNtCs4RrqI5pJN37_10karva_core10extensions4tagsNtB5_4Tags3new
FNDA:271,_RNvMs0_NtNtCs4RrqI5pJN37_10karva_core10extensions4tagsNtB5_4Tags8skip_tag
FNDA:54,_RNvXs_NtNtCs4RrqI5pJN37_10karva_core10extensions4tagsNtB4_3TagINtNtCs3vi8RLxhvdw_4core7convert4FromRNtNtB4_6python5PyTagE4from
FNDA:3,_RNvNtNtNtCs1eKvc9ZrgUW_10karva_core10extensions4tags5tests18get_skip_decorator
FNDA:16,_RNvNtNtNtCs1eKvc9ZrgUW_10karva_core10extensions4tags5tests25get_parametrize_decorator
FNDA:10,_RNvNtNtNtCs1eKvc9ZrgUW_10karva_core10extensions4tags5tests25get_usefixtures_decorator
FNDA:71,_RNCNvMs0_NtNtCs1eKvc9ZrgUW_10karva_core10extensions4tagsNtB7_4Tags11from_py_any0Bb_
FNDA:2,_RNCNvNtNtNtCs1eKvc9ZrgUW_10karva_core10extensions4tags5tests18test_no_decorators0B9_
FNDA:2,_RNCNvNtNtNtCs1eKvc9ZrgUW_10karva_core10extensions4tags5tests29test_empty_parametrize_values0B9_
FNDA:1,_RNCNvNtNtNtCs1eKvc9ZrgUW_10karva_core10extensions4tags5tests29test_skip_mark_without_reason0B9_
FNDA:2,_RNCNvNtNtNtCs1eKvc9ZrgUW_10karva_core10extensions4tags5tests30test_parametrize_args_two_args0B9_
FNDA:2,_RNCNvNtNtNtCs1eKvc9ZrgUW_10karva_core10extensions4tags5tests30test_use_fixtures_names_single0B9_
FNDA:2,_RNCNvNtNtNtCs1eKvc9ZrgUW_10karva_core10extensions4tags5tests32test_parametrize_args_single_arg0B9_
FNDA:1,_RNCNvNtNtNtCs1eKvc9ZrgUW_10karva_core10extensions4tags5tests32test_skip_mark_with_reason_kwarg0B9_
FNDA:2,_RNCNvNtNtNtCs1eKvc9ZrgUW_10karva_core10extensions4tags5tests32test_use_fixtures_names_multiple0B9_
FNDA:2,_RNCNvNtNtNtCs1eKvc9ZrgUW_10karva_core10extensions4tags5tests33test_single_arg_tuple_parametrize0B9_
FNDA:2,_RNCNvNtNtNtCs1eKvc9ZrgUW_10karva_core10extensions4tags5tests35test_complex_parametrize_data_types0B9_
FNDA:2,_RNCNvNtNtNtCs1eKvc9ZrgUW_10karva_core10extensions4tags5tests35test_mixed_parametrize_and_fixtures0B9_
FNDA:2,_RNCNvNtNtNtCs1eKvc9ZrgUW_10karva_core10extensions4tags5tests35test_parametrize_args_multiple_tags0B9_
FNDA:1,_RNCNvNtNtNtCs1eKvc9ZrgUW_10karva_core10extensions4tags5tests37test_skip_mark_with_positional_reason0B9_
FNDA:2,_RNCNvNtNtNtCs1eKvc9ZrgUW_10karva_core10extensions4tags5tests37test_use_fixtures_names_multiple_tags0B9_
FNDA:16,_RNvMNtNtCs1eKvc9ZrgUW_10karva_core10extensions4tagsNtB2_3Tag20try_from_pytest_mark
FNDA:96,_RNvMs0_NtNtCs1eKvc9ZrgUW_10karva_core10extensions4tagsNtB5_4Tags11from_py_any
FNDA:2,_RNvMs0_NtNtCs1eKvc9ZrgUW_10karva_core10extensions4tagsNtB5_4Tags15expect_fail_tag
FNDA:16,_RNvMs0_NtNtCs1eKvc9ZrgUW_10karva_core10extensions4tagsNtB5_4Tags16parametrize_args
FNDA:15,_RNvMs0_NtNtCs1eKvc9ZrgUW_10karva_core10extensions4tagsNtB5_4Tags20from_pytest_function
FNDA:46,_RNvMs0_NtNtCs1eKvc9ZrgUW_10karva_core10extensions4tagsNtB5_4Tags23required_fixtures_names
FNDA:10,_RNvMs0_NtNtCs1eKvc9ZrgUW_10karva_core10extensions4tagsNtB5_4Tags3new
FNDA:2,_RNvMs0_NtNtCs1eKvc9ZrgUW_10karva_core10extensions4tagsNtB5_4Tags8skip_tag
FNDA:13,_RNvXs_NtNtCs1eKvc9ZrgUW_10karva_core10extensions4tagsNtB4_3TagINtNtCs3vi8RLxhvdw_4core7convert4FromRNtNtB4_6python5PyTagE4from
FNF:27
FNH:27
DA:32,47
DA:33,47
DA:34,47
DA:35,47
DA:36,36
DA:37,26
DA:38,11
DA:39,0
DA:41,47
DA:42,47
DA:46,67
DA:47,67
DA:49,20
DA:50,20
DA:51,20
DA:52,16
DA:53,16
DA:55,14
DA:56,14
DA:58,17
DA:59,17
DA:62,67
DA:74,59
DA:75,59
DA:76,59
DA:78,307
DA:79,307
DA:80,307
DA:81,307
DA:82,307
DA:83,307
DA:84,200
DA:85,107
DA:87,107
DA:88,57
DA:89,65
DA:90,65
DA:91,65
DA:92,57
DA:93,50
DA:94,5
DA:95,2
DA:96,2
DA:97,2
DA:98,2
DA:99,2
DA:100,3
DA:101,45
DA:103,48
DA:104,43
DA:105,5
DA:107,5
DA:108,307
DA:110,48
DA:111,48
DA:112,48
DA:113,48
DA:114,48
DA:115,48
DA:116,43
DA:117,90
DA:118,47
DA:119,47
DA:120,47
DA:122,0
DA:124,5
DA:126,43
DA:127,48
DA:132,222
DA:133,222
DA:135,325
DA:136,103
DA:137,31
DA:139,31
DA:140,31
DA:142,71
DA:143,138
DA:144,98
DA:145,98
DA:146,98
DA:147,98
DA:149,31
DA:150,72
DA:152,222
DA:153,222
DA:156,1320
DA:157,1320
DA:158,1887
DA:159,567
DA:160,110
DA:161,457
DA:163,1320
DA:164,1320
DA:167,273
DA:168,381
DA:169,134
DA:170,26
DA:171,108
DA:173,247
DA:174,273
DA:177,253
DA:178,339
DA:179,114
DA:180,28
DA:181,86
DA:183,225
DA:184,253
DA:196,16
DA:197,16
DA:198,16
DA:199,8
DA:200,0
DA:202,16
DA:204,10
DA:205,10
DA:206,10
DA:207,5
DA:208,0
DA:210,10
DA:212,3
DA:213,3
DA:214,3
DA:215,3
DA:216,0
DA:218,3
DA:222,2
DA:223,2
DA:224,2
DA:225,2
DA:226,2
DA:227,2
DA:228,2
DA:229,2
DA:230,2
DA:231,2
DA:233,2
DA:236,2
DA:238,2
DA:239,2
DA:240,2
DA:242,2
DA:243,2
DA:244,2
DA:245,2
DA:246,2
DA:248,6
DA:249,12
DA:250,6
DA:251,6
DA:252,6
DA:256,2
DA:261,2
DA:262,2
DA:263,2
DA:264,2
DA:265,2
DA:266,2
DA:267,2
DA:268,2
DA:269,2
DA:270,2
DA:272,2
DA:275,2
DA:277,2
DA:278,2
DA:279,2
DA:281,2
DA:282,2
DA:283,2
DA:284,2
DA:285,2
DA:287,6
DA:288,18
DA:289,12
DA:290,12
DA:291,12
DA:295,2
DA:300,2
DA:301,2
DA:302,2
DA:303,2
DA:304,2
DA:305,2
DA:306,2
DA:307,2
DA:308,2
DA:309,2
DA:310,2
DA:312,2
DA:313,2
DA:316,2
DA:318,2
DA:319,2
DA:320,2
DA:322,2
DA:323,2
DA:324,2
DA:325,2
DA:326,2
DA:327,2
DA:328,2
DA:329,2
DA:330,2
DA:331,2
DA:332,2
DA:334,18
DA:335,54
DA:336,36
DA:337,36
DA:338,36
DA:342,2
DA:347,2
DA:348,2
DA:349,2
DA:350,2
DA:351,2
DA:352,2
DA:353,2
DA:354,2
DA:355,2
DA:356,2
DA:358,2
DA:361,2
DA:363,2
DA:364,2
DA:365,2
DA:367,2
DA:368,2
DA:369,2
DA:374,2
DA:375,2
DA:376,2
DA:377,2
DA:378,2
DA:379,2
DA:380,2
DA:381,2
DA:382,2
DA:383,2
DA:385,2
DA:388,2
DA:390,2
DA:391,2
DA:392,2
DA:394,2
DA:395,2
DA:396,2
DA:401,2
DA:402,2
DA:403,2
DA:404,2
DA:405,2
DA:406,2
DA:407,2
DA:408,2
DA:409,2
DA:410,2
DA:411,2
DA:413,2
DA:414,2
DA:417,2
DA:419,2
DA:420,2
DA:421,2
DA:423,2
DA:424,2
DA:425,2
DA:426,2
DA:427,2
DA:428,2
DA:429,2
DA:430,2
DA:435,2
DA:436,2
DA:437,2
DA:438,2
DA:439,2
DA:440,2
DA:441,2
DA:442,2
DA:443,2
DA:444,2
DA:446,2
DA:449,2
DA:451,2
DA:452,2
DA:453,2
DA:455,2
DA:456,2
DA:457,2
DA:462,2
DA:463,2
DA:464,2
DA:465,2
DA:466,2
DA:467,2
DA:468,2
DA:469,2
DA:470,2
DA:471,2
DA:472,2
DA:474,2
DA:475,2
DA:478,2
DA:480,2
DA:481,2
DA:482,2
DA:484,2
DA:485,2
DA:487,2
DA:488,2
DA:489,2
DA:494,2
DA:495,2
DA:496,2
DA:497,2
DA:498,2
DA:499,2
DA:500,2
DA:501,2
DA:502,2
DA:503,2
DA:505,2
DA:508,2
DA:510,2
DA:511,2
DA:512,2
DA:514,2
DA:515,2
DA:517,2
DA:518,2
DA:521,2
DA:522,2
DA:523,2
DA:524,2
DA:529,2
DA:530,2
DA:531,2
DA:532,2
DA:533,2
DA:534,2
DA:535,2
DA:536,2
DA:537,2
DA:540,2
DA:542,2
DA:543,2
DA:544,2
DA:546,2
DA:547,2
DA:552,2
DA:553,2
DA:554,2
DA:555,2
DA:556,2
DA:557,2
DA:558,2
DA:559,2
DA:560,2
DA:561,2
DA:563,2
DA:566,2
DA:568,2
DA:569,2
DA:570,2
DA:572,2
DA:573,2
DA:575,6
DA:576,6
DA:577,6
DA:581,2
DA:586,1
DA:587,1
DA:588,1
DA:589,1
DA:590,1
DA:591,1
DA:592,1
DA:593,1
DA:594,1
DA:595,1
DA:597,1
DA:600,1
DA:602,1
DA:603,1
DA:604,1
DA:606,1
DA:607,1
DA:608,1
DA:610,0
DA:612,1
DA:617,1
DA:618,1
DA:619,1
DA:620,1
DA:621,1
DA:622,1
DA:623,1
DA:624,1
DA:625,1
DA:626,1
DA:628,1
DA:631,1
DA:633,1
DA:634,1
DA:635,1
DA:637,1
DA:638,1
DA:639,1
DA:641,0
DA:643,1
DA:648,1
DA:649,1
DA:650,1
DA:651,1
DA:652,1
DA:653,1
DA:654,1
DA:655,1
DA:656,1
DA:657,1
DA:659,1
DA:662,1
DA:664,1
DA:665,1
DA:666,1
DA:668,1
DA:669,1
DA:670,1
DA:672,0
DA:674,1
BRF:0
BRH:0
LF:432
LH:424
end_of_record
SF:/home/matthew/develop/personal/karva/crates/karva_core/src/extensions/tags/parametrize.rs
FN:25,_RNCNvNtNtNtCs4RrqI5pJN37_10karva_core10extensions4tags11parametrize22parse_parametrize_args0B9_
FN:32,_RNCNvNtNtNtCs4RrqI5pJN37_10karva_core10extensions4tags11parametrize22parse_parametrize_argss0_0B9_
FN:85,_RNvMNtNtNtCs4RrqI5pJN37_10karva_core10extensions4tags11parametrizeNtB2_14ParametrizeTag14each_arg_value
FN:68,_RNvMNtNtNtCs4RrqI5pJN37_10karva_core10extensions4tags11parametrizeNtB2_14ParametrizeTag20try_from_pytest_mark
FN:61,_RNvMNtNtNtCs4RrqI5pJN37_10karva_core10extensions4tags11parametrizeNtB2_14ParametrizeTag3new
FN:14,_RNvNtNtNtCs4RrqI5pJN37_10karva_core10extensions4tags11parametrize22parse_parametrize_args
FN:103,_RNvXs_NtNtNtCs4RrqI5pJN37_10karva_core10extensions4tags11parametrizeNtB4_14ParametrizeTagINtNtCs3vi8RLxhvdw_4core7convert7TryFromRINtNtCsaGZDKDLuEaS_4pyo38instance5BoundNtNtNtB29_5types3any5PyAnyEE8try_from
FN:85,_RNvMNtNtNtCs1eKvc9ZrgUW_10karva_core10extensions4tags11parametrizeNtB2_14ParametrizeTag14each_arg_value
FN:68,_RNvMNtNtNtCs1eKvc9ZrgUW_10karva_core10extensions4tags11parametrizeNtB2_14ParametrizeTag20try_from_pytest_mark
FN:61,_RNvMNtNtNtCs1eKvc9ZrgUW_10karva_core10extensions4tags11parametrizeNtB2_14ParametrizeTag3new
FN:14,_RNvNtNtNtCs1eKvc9ZrgUW_10karva_core10extensions4tags11parametrize22parse_parametrize_args
FN:103,_RNvXs_NtNtNtCs1eKvc9ZrgUW_10karva_core10extensions4tags11parametrizeNtB4_14ParametrizeTagINtNtCs3vi8RLxhvdw_4core7convert7TryFromRINtNtCsaGZDKDLuEaS_4pyo38instance5BoundNtNtNtB29_5types3any5PyAnyEE8try_from
FN:25,_RNCNvNtNtNtCs1eKvc9ZrgUW_10karva_core10extensions4tags11parametrize22parse_parametrize_args0B9_
FN:32,_RNCNvNtNtNtCs1eKvc9ZrgUW_10karva_core10extensions4tags11parametrize22parse_parametrize_argss0_0B9_
FNDA:4,_RNCNvNtNtNtCs4RrqI5pJN37_10karva_core10extensions4tags11parametrize22parse_parametrize_args0B9_
FNDA:30,_RNCNvNtNtNtCs4RrqI5pJN37_10karva_core10extensions4tags11parametrize22parse_parametrize_argss0_0B9_
FNDA:15,_RNvMNtNtNtCs4RrqI5pJN37_10karva_core10extensions4tags11parametrizeNtB2_14ParametrizeTag14each_arg_value
FNDA:3,_RNvMNtNtNtCs4RrqI5pJN37_10karva_core10extensions4tags11parametrizeNtB2_14ParametrizeTag20try_from_pytest_mark
FNDA:12,_RNvMNtNtNtCs4RrqI5pJN37_10karva_core10extensions4tags11parametrizeNtB2_14ParametrizeTag3new
FNDA:15,_RNvNtNtNtCs4RrqI5pJN37_10karva_core10extensions4tags11parametrize22parse_parametrize_args
FNDA:3,_RNvXs_NtNtNtCs4RrqI5pJN37_10karva_core10extensions4tags11parametrizeNtB4_14ParametrizeTagINtNtCs3vi8RLxhvdw_4core7convert7TryFromRINtNtCsaGZDKDLuEaS_4pyo38instance5BoundNtNtNtB29_5types3any5PyAnyEE8try_from
FNDA:16,_RNvMNtNtNtCs1eKvc9ZrgUW_10karva_core10extensions4tags11parametrizeNtB2_14ParametrizeTag14each_arg_value
FNDA:8,_RNvMNtNtNtCs1eKvc9ZrgUW_10karva_core10extensions4tags11parametrizeNtB2_14ParametrizeTag20try_from_pytest_mark
FNDA:8,_RNvMNtNtNtCs1eKvc9ZrgUW_10karva_core10extensions4tags11parametrizeNtB2_14ParametrizeTag3new
FNDA:20,_RNvNtNtNtCs1eKvc9ZrgUW_10karva_core10extensions4tags11parametrize22parse_parametrize_args
FNDA:8,_RNvXs_NtNtNtCs1eKvc9ZrgUW_10karva_core10extensions4tags11parametrizeNtB4_14ParametrizeTagINtNtCs3vi8RLxhvdw_4core7convert7TryFromRINtNtCsaGZDKDLuEaS_4pyo38instance5BoundNtNtNtB29_5types3any5PyAnyEE8try_from
FNDA:0,_RNCNvNtNtNtCs1eKvc9ZrgUW_10karva_core10extensions4tags11parametrize22parse_parametrize_args0B9_
FNDA:36,_RNCNvNtNtNtCs1eKvc9ZrgUW_10karva_core10extensions4tags11parametrize22parse_parametrize_argss0_0B9_
FNF:7
FNH:7
DA:14,35
DA:15,35
DA:16,35
DA:17,35
DA:19,29
DA:20,35
DA:21,35
DA:24,29
DA:25,4
DA:26,2
DA:27,2
DA:28,2
DA:29,2
DA:32,66
DA:33,27
DA:35,5
DA:36,6
DA:37,6
DA:40,5
DA:42,1
DA:44,35
DA:61,20
DA:62,20
DA:63,20
DA:64,20
DA:65,20
DA:66,20
DA:68,11
DA:69,11
DA:71,11
DA:72,11
DA:74,11
DA:76,11
DA:77,11
DA:78,11
DA:79,11
DA:80,11
DA:85,31
DA:86,31
DA:87,31
DA:89,107
DA:90,76
DA:91,86
DA:92,86
DA:93,86
DA:94,76
DA:96,31
DA:97,31
DA:103,11
DA:104,11
DA:105,11
BRF:0
BRH:0
LF:53
LH:48
end_of_record
SF:/home/matthew/develop/personal/karva/crates/karva_core/src/extensions/tags/python.rs
FN:189,_RNvNtNtNtNtCs4RrqI5pJN37_10karva_core10extensions4tags6python4tags11expect_fail
FN:91,_RNvNtNtNtNtCs4RrqI5pJN37_10karva_core10extensions4tags6python4tags11parametrize
FN:112,_RNvNtNtNtNtCs4RrqI5pJN37_10karva_core10extensions4tags6python4tags12use_fixtures
FN:132,_RNvNtNtNtNtCs4RrqI5pJN37_10karva_core10extensions4tags6python4tags4skip
FN:96,_RNCNvNtNtNtNtCs4RrqI5pJN37_10karva_core10extensions4tags6python4tags11parametrize0Bb_
FN:256,_RNvMs12_NtNtNtCs4RrqI5pJN37_10karva_core10extensions4tags6pythonNtB6_14PyTestFunction8___call__
FN:35,_RNvMsB_NtNtNtCs4RrqI5pJN37_10karva_core10extensions4tags6pythonNtB5_5PyTag4name
FN:33,_RNvMsD_NtNtNtCs4RrqI5pJN37_10karva_core10extensions4tags6pythonNtB5_5PyTag17___pymethod_name__
FN:54,_RNvMsP_NtNtNtCs4RrqI5pJN37_10karva_core10extensions4tags6pythonNtB5_6PyTags8___call__
FN:9,_RNvMsg_NtNtNtCs4RrqI5pJN37_10karva_core10extensions4tags6pythonNtB5_17PyTag_Parametrize26___pymethod_get_arg_names__
FN:9,_RNvMsg_NtNtNtCs4RrqI5pJN37_10karva_core10extensions4tags6pythonNtB5_17PyTag_Parametrize27___pymethod_get_arg_values__
FN:9,_RNvMsl_NtNtNtCs4RrqI5pJN37_10karva_core10extensions4tags6pythonNtB5_17PyTag_UseFixtures30___pymethod_get_fixture_names__
FN:9,_RNvMsq_NtNtNtCs4RrqI5pJN37_10karva_core10extensions4tags6pythonNtB5_10PyTag_Skip23___pymethod_get_reason__
FN:9,_RNvMsq_NtNtNtCs4RrqI5pJN37_10karva_core10extensions4tags6pythonNtB5_10PyTag_Skip27___pymethod_get_conditions__
FN:9,_RNvMsv_NtNtNtCs4RrqI5pJN37_10karva_core10extensions4tags6pythonNtB5_16PyTag_ExpectFail23___pymethod_get_reason__
FN:9,_RNvMsv_NtNtNtCs4RrqI5pJN37_10karva_core10extensions4tags6pythonNtB5_16PyTag_ExpectFail27___pymethod_get_conditions__
FN:288,_RNvNtNtNtCs4RrqI5pJN37_10karva_core10extensions4tags6python4fail
FN:278,_RNvNtNtNtCs4RrqI5pJN37_10karva_core10extensions4tags6python4skip
FN:304,_RNCNvNtNtNtNtCs1eKvc9ZrgUW_10karva_core10extensions4tags6python5testss_27test_parametrize_single_arg0Bb_
FN:461,_RNCNvNtNtNtNtCs1eKvc9ZrgUW_10karva_core10extensions4tags6python5testss_27test_use_fixtures_decorator0Bb_
FN:360,_RNCNvNtNtNtNtCs1eKvc9ZrgUW_10karva_core10extensions4tags6python5testss_29test_invalid_parametrize_args0Bb_
FN:335,_RNCNvNtNtNtNtCs1eKvc9ZrgUW_10karva_core10extensions4tags6python5testss_30test_parametrize_multiple_args0Bb_
FN:432,_RNCNvNtNtNtNtCs1eKvc9ZrgUW_10karva_core10extensions4tags6python5testss_30test_use_fixtures_invalid_args0Bb_
FN:402,_RNCNvNtNtNtNtCs1eKvc9ZrgUW_10karva_core10extensions4tags6python5testss_32test_use_fixtures_single_fixture0Bb_
FN:416,_RNCNvNtNtNtNtCs1eKvc9ZrgUW_10karva_core10extensions4tags6python5testss_35test_use_fixtures_multiple_fixtures0Bb_
FN:373,_RNCNvNtNtNtNtCs1eKvc9ZrgUW_10karva_core10extensions4tags6python5testss_43test_parametrize_multiple_args_with_fixture0Bb_
FN:189,_RNvNtNtNtNtCs1eKvc9ZrgUW_10karva_core10extensions4tags6python4tags11expect_fail
FN:91,_RNvNtNtNtNtCs1eKvc9ZrgUW_10karva_core10extensions4tags6python4tags11parametrize
FN:112,_RNvNtNtNtNtCs1eKvc9ZrgUW_10karva_core10extensions4tags6python4tags12use_fixtures
FN:132,_RNvNtNtNtNtCs1eKvc9ZrgUW_10karva_core10extensions4tags6python4tags4skip
FN:96,_RNCNvNtNtNtNtCs1eKvc9ZrgUW_10karva_core10extensions4tags6python4tags11parametrize0Bb_
FN:303,_RNvNtNtNtNtCs1eKvc9ZrgUW_10karva_core10extensions4tags6python5testss_27test_parametrize_single_arg
FN:460,_RNvNtNtNtNtCs1eKvc9ZrgUW_10karva_core10extensions4tags6python5testss_27test_use_fixtures_decorator
FN:359,_RNvNtNtNtNtCs1eKvc9ZrgUW_10karva_core10extensions4tags6python5testss_29test_invalid_parametrize_args
FN:334,_RNvNtNtNtNtCs1eKvc9ZrgUW_10karva_core10extensions4tags6python5testss_30test_parametrize_multiple_args
FN:431,_RNvNtNtNtNtCs1eKvc9ZrgUW_10karva_core10extensions4tags6python5testss_30test_use_fixtures_invalid_args
FN:401,_RNvNtNtNtNtCs1eKvc9ZrgUW_10karva_core10extensions4tags6python5testss_32test_use_fixtures_single_fixture
FN:415,_RNvNtNtNtNtCs1eKvc9ZrgUW_10karva_core10extensions4tags6python5testss_35test_use_fixtures_multiple_fixtures
FN:372,_RNvNtNtNtNtCs1eKvc9ZrgUW_10karva_core10extensions4tags6python5testss_43test_parametrize_multiple_args_with_fixture
FN:256,_RNvMs12_NtNtNtCs1eKvc9ZrgUW_10karva_core10extensions4tags6pythonNtB6_14PyTestFunction8___call__
FN:35,_RNvMsB_NtNtNtCs1eKvc9ZrgUW_10karva_core10extensions4tags6pythonNtB5_5PyTag4name
FN:33,_RNvMsD_NtNtNtCs1eKvc9ZrgUW_10karva_core10extensions4tags6pythonNtB5_5PyTag17___pymethod_name__
FN:54,_RNvMsP_NtNtNtCs1eKvc9ZrgUW_10karva_core10extensions4tags6pythonNtB5_6PyTags8___call__
FN:9,_RNvMsg_NtNtNtCs1eKvc9ZrgUW_10karva_core10extensions4tags6pythonNtB5_17PyTag_Parametrize26___pymethod_get_arg_names__
FN:9,_RNvMsg_NtNtNtCs1eKvc9ZrgUW_10karva_core10extensions4tags6pythonNtB5_17PyTag_Parametrize27___pymethod_get_arg_values__
FN:9,_RNvMsl_NtNtNtCs1eKvc9ZrgUW_10karva_core10extensions4tags6pythonNtB5_17PyTag_UseFixtures30___pymethod_get_fixture_names__
FN:9,_RNvMsq_NtNtNtCs1eKvc9ZrgUW_10karva_core10extensions4tags6pythonNtB5_10PyTag_Skip23___pymethod_get_reason__
FN:9,_RNvMsq_NtNtNtCs1eKvc9ZrgUW_10karva_core10extensions4tags6pythonNtB5_10PyTag_Skip27___pymethod_get_conditions__
FN:9,_RNvMsv_NtNtNtCs1eKvc9ZrgUW_10karva_core10extensions4tags6pythonNtB5_16PyTag_ExpectFail23___pymethod_get_reason__
FN:9,_RNvMsv_NtNtNtCs1eKvc9ZrgUW_10karva_core10extensions4tags6pythonNtB5_16PyTag_ExpectFail27___pymethod_get_conditions__
FN:288,_RNvNtNtNtCs1eKvc9ZrgUW_10karva_core10extensions4tags6python4fail
FN:278,_RNvNtNtNtCs1eKvc9ZrgUW_10karva_core10extensions4tags6python4skip
FNDA:17,_RNvNtNtNtNtCs4RrqI5pJN37_10karva_core10extensions4tags6python4tags11expect_fail
FNDA:12,_RNvNtNtNtNtCs4RrqI5pJN37_10karva_core10extensions4tags6python4tags11parametrize
FNDA:11,_RNvNtNtNtNtCs4RrqI5pJN37_10karva_core10extensions4tags6python4tags12use_fixtures
FNDA:16,_RNvNtNtNtNtCs4RrqI5pJN37_10karva_core10extensions4tags6python4tags4skip
FNDA:0,_RNCNvNtNtNtNtCs4RrqI5pJN37_10karva_core10extensions4tags6python4tags11parametrize0Bb_
FNDA:60,_RNvMs12_NtNtNtCs4RrqI5pJN37_10karva_core10extensions4tags6pythonNtB6_14PyTestFunction8___call__
FNDA:0,_RNvMsB_NtNtNtCs4RrqI5pJN37_10karva_core10extensions4tags6pythonNtB5_5PyTag4name
FNDA:0,_RNvMsD_NtNtNtCs4RrqI5pJN37_10karva_core10extensions4tags6pythonNtB5_5PyTag17___pymethod_name__
FNDA:51,_RNvMsP_NtNtNtCs4RrqI5pJN37_10karva_core10extensions4tags6pythonNtB5_6PyTags8___call__
FNDA:0,_RNvMsg_NtNtNtCs4RrqI5pJN37_10karva_core10extensions4tags6pythonNtB5_17PyTag_Parametrize26___pymethod_get_arg_names__
FNDA:0,_RNvMsg_NtNtNtCs4RrqI5pJN37_10karva_core10extensions4tags6pythonNtB5_17PyTag_Parametrize27___pymethod_get_arg_values__
FNDA:0,_RNvMsl_NtNtNtCs4RrqI5pJN37_10karva_core10extensions4tags6pythonNtB5_17PyTag_UseFixtures30___pymethod_get_fixture_names__
FNDA:0,_RNvMsq_NtNtNtCs4RrqI5pJN37_10karva_core10extensions4tags6pythonNtB5_10PyTag_Skip23___pymethod_get_reason__
FNDA:0,_RNvMsq_NtNtNtCs4RrqI5pJN37_10karva_core10extensions4tags6pythonNtB5_10PyTag_Skip27___pymethod_get_conditions__
FNDA:0,_RNvMsv_NtNtNtCs4RrqI5pJN37_10karva_core10extensions4tags6pythonNtB5_16PyTag_ExpectFail23___pymethod_get_reason__
FNDA:0,_RNvMsv_NtNtNtCs4RrqI5pJN37_10karva_core10extensions4tags6pythonNtB5_16PyTag_ExpectFail27___pymethod_get_conditions__
FNDA:2,_RNvNtNtNtCs4RrqI5pJN37_10karva_core10extensions4tags6python4fail
FNDA:8,_RNvNtNtNtCs4RrqI5pJN37_10karva_core10extensions4tags6python4skip
FNDA:1,_RNCNvNtNtNtNtCs1eKvc9ZrgUW_10karva_core10extensions4tags6python5testss_27test_parametrize_single_arg0Bb_
FNDA:1,_RNCNvNtNtNtNtCs1eKvc9ZrgUW_10karva_core10extensions4tags6python5testss_27test_use_fixtures_decorator0Bb_
FNDA:1,_RNCNvNtNtNtNtCs1eKvc9ZrgUW_10karva_core10extensions4tags6python5testss_29test_invalid_parametrize_args0Bb_
FNDA:1,_RNCNvNtNtNtNtCs1eKvc9ZrgUW_10karva_core10extensions4tags6python5testss_30test_parametrize_multiple_args0Bb_
FNDA:1,_RNCNvNtNtNtNtCs1eKvc9ZrgUW_10karva_core10extensions4tags6python5testss_30test_use_fixtures_invalid_args0Bb_
FNDA:1,_RNCNvNtNtNtNtCs1eKvc9ZrgUW_10karva_core10extensions4tags6python5testss_32test_use_fixtures_single_fixture0Bb_
FNDA:1,_RNCNvNtNtNtNtCs1eKvc9ZrgUW_10karva_core10extensions4tags6python5testss_35test_use_fixtures_multiple_fixtures0Bb_
FNDA:1,_RNCNvNtNtNtNtCs1eKvc9ZrgUW_10karva_core10extensions4tags6python5testss_43test_parametrize_multiple_args_with_fixture0Bb_
FNDA:0,_RNvNtNtNtNtCs1eKvc9ZrgUW_10karva_core10extensions4tags6python4tags11expect_fail
FNDA:12,_RNvNtNtNtNtCs1eKvc9ZrgUW_10karva_core10extensions4tags6python4tags11parametrize
FNDA:9,_RNvNtNtNtNtCs1eKvc9ZrgUW_10karva_core10extensions4tags6python4tags12use_fixtures
FNDA:0,_RNvNtNtNtNtCs1eKvc9ZrgUW_10karva_core10extensions4tags6python4tags4skip
FNDA:1,_RNCNvNtNtNtNtCs1eKvc9ZrgUW_10karva_core10extensions4tags6python4tags11parametrize0Bb_
FNDA:1,_RNvNtNtNtNtCs1eKvc9ZrgUW_10karva_core10extensions4tags6python5testss_27test_parametrize_single_arg
FNDA:1,_RNvNtNtNtNtCs1eKvc9ZrgUW_10karva_core10extensions4tags6python5testss_27test_use_fixtures_decorator
FNDA:1,_RNvNtNtNtNtCs1eKvc9ZrgUW_10karva_core10extensions4tags6python5testss_29test_invalid_parametrize_args
FNDA:1,_RNvNtNtNtNtCs1eKvc9ZrgUW_10karva_core10extensions4tags6python5testss_30test_parametrize_multiple_args
FNDA:1,_RNvNtNtNtNtCs1eKvc9ZrgUW_10karva_core10extensions4tags6python5testss_30test_use_fixtures_invalid_args
FNDA:1,_RNvNtNtNtNtCs1eKvc9ZrgUW_10karva_core10extensions4tags6python5testss_32test_use_fixtures_single_fixture
FNDA:1,_RNvNtNtNtNtCs1eKvc9ZrgUW_10karva_core10extensions4tags6python5testss_35test_use_fixtures_multiple_fixtures
FNDA:1,_RNvNtNtNtNtCs1eKvc9ZrgUW_10karva_core10extensions4tags6python5testss_43test_parametrize_multiple_args_with_fixture
FNDA:1,_RNvMs12_NtNtNtCs1eKvc9ZrgUW_10karva_core10extensions4tags6pythonNtB6_14PyTestFunction8___call__
FNDA:4,_RNvMsB_NtNtNtCs1eKvc9ZrgUW_10karva_core10extensions4tags6pythonNtB5_5PyTag4name
FNDA:0,_RNvMsD_NtNtNtCs1eKvc9ZrgUW_10karva_core10extensions4tags6pythonNtB5_5PyTag17___pymethod_name__
FNDA:15,_RNvMsP_NtNtNtCs1eKvc9ZrgUW_10karva_core10extensions4tags6pythonNtB5_6PyTags8___call__
FNDA:0,_RNvMsg_NtNtNtCs1eKvc9ZrgUW_10karva_core10extensions4tags6pythonNtB5_17PyTag_Parametrize26___pymethod_get_arg_names__
FNDA:0,_RNvMsg_NtNtNtCs1eKvc9ZrgUW_10karva_core10extensions4tags6pythonNtB5_17PyTag_Parametrize27___pymethod_get_arg_values__
FNDA:0,_RNvMsl_NtNtNtCs1eKvc9ZrgUW_10karva_core10extensions4tags6pythonNtB5_17PyTag_UseFixtures30___pymethod_get_fixture_names__
FNDA:0,_RNvMsq_NtNtNtCs1eKvc9ZrgUW_10karva_core10extensions4tags6pythonNtB5_10PyTag_Skip23___pymethod_get_reason__
FNDA:0,_RNvMsq_NtNtNtCs1eKvc9ZrgUW_10karva_core10extensions4tags6pythonNtB5_10PyTag_Skip27___pymethod_get_conditions__
FNDA:0,_RNvMsv_NtNtNtCs1eKvc9ZrgUW_10karva_core10extensions4tags6pythonNtB5_16PyTag_ExpectFail23___pymethod_get_reason__
FNDA:0,_RNvMsv_NtNtNtCs1eKvc9ZrgUW_10karva_core10extensions4tags6pythonNtB5_16PyTag_ExpectFail27___pymethod_get_conditions__
FNDA:0,_RNvNtNtNtCs1eKvc9ZrgUW_10karva_core10extensions4tags6python4fail
FNDA:0,_RNvNtNtNtCs1eKvc9ZrgUW_10karva_core10extensions4tags6python4skip
FNF:28
FNH:26
DA:9,0
DA:33,0
DA:35,4
DA:36,4
DA:37,2
DA:38,2
DA:39,0
DA:40,0
DA:42,4
DA:54,66
DA:55,66
DA:56,0
DA:57,0
DA:58,66
DA:59,8
DA:60,8
DA:61,58
DA:62,58
DA:63,58
DA:64,58
DA:65,58
DA:66,58
DA:67,0
DA:68,0
DA:69,0
DA:70,0
DA:71,0
DA:72,0
DA:73,0
DA:74,0
DA:75,66
DA:91,24
DA:92,24
DA:93,24
DA:94,24
DA:95,24
DA:96,24
DA:97,1
DA:100,1
DA:102,23
DA:103,23
DA:104,23
DA:105,23
DA:106,23
DA:107,23
DA:108,24
DA:112,20
DA:113,20
DA:114,27
DA:115,27
DA:116,26
DA:117,26
DA:118,1
DA:119,1
DA:120,1
DA:123,19
DA:124,19
DA:125,19
DA:126,19
DA:127,19
DA:128,20
DA:132,16
DA:133,16
DA:134,16
DA:135,16
DA:136,16
DA:137,16
DA:140,16
DA:141,9
DA:142,9
DA:143,1
DA:144,1
DA:145,1
DA:146,1
DA:147,1
DA:148,1
DA:149,1
DA:150,1
DA:151,1
DA:152,1
DA:153,8
DA:155,8
DA:156,2
DA:157,2
DA:158,2
DA:159,2
DA:160,2
DA:161,2
DA:162,2
DA:163,6
DA:164,0
DA:165,7
DA:168,13
DA:169,13
DA:170,11
DA:171,11
DA:172,2
DA:173,2
DA:174,2
DA:178,11
DA:179,11
DA:180,11
DA:181,11
DA:182,11
DA:183,11
DA:184,11
DA:185,16
DA:189,17
DA:190,17
DA:191,17
DA:192,17
DA:193,17
DA:194,17
DA:197,17
DA:198,6
DA:199,6
DA:200,2
DA:201,2
DA:202,2
DA:203,2
DA:204,2
DA:205,2
DA:206,2
DA:207,2
DA:208,2
DA:209,2
DA:210,4
DA:212,4
DA:213,1
DA:214,1
DA:215,1
DA:216,1
DA:217,1
DA:218,1
DA:219,1
DA:220,3
DA:221,0
DA:222,11
DA:225,14
DA:226,7
DA:227,7
DA:228,7
DA:229,0
DA:230,0
DA:231,0
DA:235,14
DA:236,14
DA:237,14
DA:238,14
DA:239,14
DA:240,14
DA:241,14
DA:242,17
DA:256,61
DA:257,61
DA:258,61
DA:259,61
DA:260,61
DA:261,61
DA:262,61
DA:263,61
DA:278,8
DA:279,8
DA:280,8
DA:281,8
DA:288,2
DA:289,2
DA:290,2
DA:303,1
DA:304,1
DA:305,1
DA:306,1
DA:307,1
DA:308,1
DA:309,1
DA:311,1
DA:312,1
DA:313,1
DA:315,1
DA:316,1
DA:317,1
DA:318,1
DA:321,1
DA:322,1
DA:325,1
DA:326,1
DA:329,0
DA:330,1
DA:331,1
DA:334,1
DA:335,1
DA:336,1
DA:337,1
DA:338,1
DA:339,1
DA:340,1
DA:342,1
DA:343,1
DA:344,1
DA:346,1
DA:347,1
DA:348,1
DA:349,1
DA:350,1
DA:351,1
DA:352,1
DA:353,1
DA:354,0
DA:355,1
DA:356,1
DA:359,1
DA:360,1
DA:361,1
DA:362,1
DA:363,1
DA:364,1
DA:365,1
DA:368,1
DA:369,1
DA:372,1
DA:373,1
DA:374,1
DA:376,1
DA:377,1
DA:386,1
DA:387,1
DA:389,1
DA:391,1
DA:392,1
DA:394,1
DA:396,1
DA:397,1
DA:398,1
DA:401,1
DA:402,1
DA:403,1
DA:404,1
DA:405,1
DA:406,1
DA:407,1
DA:408,1
DA:409,1
DA:410,0
DA:411,1
DA:412,1
DA:415,1
DA:416,1
DA:417,1
DA:418,1
DA:419,1
DA:420,1
DA:421,1
DA:422,1
DA:423,1
DA:424,1
DA:425,1
DA:426,0
DA:427,1
DA:428,1
DA:431,1
DA:432,1
DA:433,1
DA:435,1
DA:436,1
DA:444,1
DA:445,1
DA:447,1
DA:448,1
DA:449,1
DA:450,1
DA:451,1
DA:452,1
DA:453,1
DA:456,1
DA:457,1
DA:460,1
DA:461,1
DA:462,1
DA:464,1
DA:465,1
DA:474,1
DA:475,1
DA:477,1
DA:479,1
DA:480,1
DA:482,1
DA:483,1
DA:484,1
DA:485,0
DA:486,1
DA:487,1
BRF:0
BRH:0
LF:301
LH:277
end_of_record
SF:/home/matthew/develop/personal/karva/crates/karva_core/src/extensions/tags/skip.rs
FN:62,_RNCNCNCNvMNtNtNtCs4RrqI5pJN37_10karva_core10extensions4tags4skipNtB8_7SkipTag20try_from_pytest_mark000Be_
FN:59,_RNCNCNvMNtNtNtCs4RrqI5pJN37_10karva_core10extensions4tags4skipNtB6_7SkipTag20try_from_pytest_mark00Bc_
FN:55,_RNCNvMNtNtNtCs4RrqI5pJN37_10karva_core10extensions4tags4skipNtB4_7SkipTag20try_from_pytest_mark0Ba_
FN:68,_RNCNvMNtNtNtCs4RrqI5pJN37_10karva_core10extensions4tags4skipNtB4_7SkipTag20try_from_pytest_marks_0Ba_
FN:25,_RNvMNtNtNtCs4RrqI5pJN37_10karva_core10extensions4tags4skipNtB2_7SkipTag11should_skip
FN:33,_RNvMNtNtNtCs4RrqI5pJN37_10karva_core10extensions4tags4skipNtB2_7SkipTag20try_from_pytest_mark
FN:14,_RNvMNtNtNtCs4RrqI5pJN37_10karva_core10extensions4tags4skipNtB2_7SkipTag3new
FN:18,_RNvMNtNtNtCs4RrqI5pJN37_10karva_core10extensions4tags4skipNtB2_7SkipTag6reason
FN:78,_RNvXs_NtNtNtCs4RrqI5pJN37_10karva_core10extensions4tags4skipNtB4_7SkipTagINtNtCs3vi8RLxhvdw_4core7convert7TryFromRINtNtCsaGZDKDLuEaS_4pyo38instance5BoundNtNtNtB1T_5types3any5PyAnyEE8try_from
FN:25,_RNvMNtNtNtCs1eKvc9ZrgUW_10karva_core10extensions4tags4skipNtB2_7SkipTag11should_skip
FN:33,_RNvMNtNtNtCs1eKvc9ZrgUW_10karva_core10extensions4tags4skipNtB2_7SkipTag20try_from_pytest_mark
FN:14,_RNvMNtNtNtCs1eKvc9ZrgUW_10karva_core10extensions4tags4skipNtB2_7SkipTag3new
FN:18,_RNvMNtNtNtCs1eKvc9ZrgUW_10karva_core10extensions4tags4skipNtB2_7SkipTag6reason
FN:78,_RNvXs_NtNtNtCs1eKvc9ZrgUW_10karva_core10extensions4tags4skipNtB4_7SkipTagINtNtCs3vi8RLxhvdw_4core7convert7TryFromRINtNtCsaGZDKDLuEaS_4pyo38instance5BoundNtNtNtB1T_5types3any5PyAnyEE8try_from
FN:62,_RNCNCNCNvMNtNtNtCs1eKvc9ZrgUW_10karva_core10extensions4tags4skipNtB8_7SkipTag20try_from_pytest_mark000Be_
FN:59,_RNCNCNvMNtNtNtCs1eKvc9ZrgUW_10karva_core10extensions4tags4skipNtB6_7SkipTag20try_from_pytest_mark00Bc_
FN:55,_RNCNvMNtNtNtCs1eKvc9ZrgUW_10karva_core10extensions4tags4skipNtB4_7SkipTag20try_from_pytest_mark0Ba_
FN:68,_RNCNvMNtNtNtCs1eKvc9ZrgUW_10karva_core10extensions4tags4skipNtB4_7SkipTag20try_from_pytest_marks_0Ba_
FNDA:1,_RNCNCNCNvMNtNtNtCs4RrqI5pJN37_10karva_core10extensions4tags4skipNtB8_7SkipTag20try_from_pytest_mark000Be_
FNDA:3,_RNCNCNvMNtNtNtCs4RrqI5pJN37_10karva_core10extensions4tags4skipNtB6_7SkipTag20try_from_pytest_mark00Bc_
FNDA:4,_RNCNvMNtNtNtCs4RrqI5pJN37_10karva_core10extensions4tags4skipNtB4_7SkipTag20try_from_pytest_mark0Ba_
FNDA:8,_RNCNvMNtNtNtCs4RrqI5pJN37_10karva_core10extensions4tags4skipNtB4_7SkipTag20try_from_pytest_marks_0Ba_
FNDA:26,_RNvMNtNtNtCs4RrqI5pJN37_10karva_core10extensions4tags4skipNtB2_7SkipTag11should_skip
FNDA:12,_RNvMNtNtNtCs4RrqI5pJN37_10karva_core10extensions4tags4skipNtB2_7SkipTag20try_from_pytest_mark
FNDA:14,_RNvMNtNtNtCs4RrqI5pJN37_10karva_core10extensions4tags4skipNtB2_7SkipTag3new
FNDA:20,_RNvMNtNtNtCs4RrqI5pJN37_10karva_core10extensions4tags4skipNtB2_7SkipTag6reason
FNDA:12,_RNvXs_NtNtNtCs4RrqI5pJN37_10karva_core10extensions4tags4skipNtB4_7SkipTagINtNtCs3vi8RLxhvdw_4core7convert7TryFromRINtNtCsaGZDKDLuEaS_4pyo38instance5BoundNtNtNtB1T_5types3any5PyAnyEE8try_from
FNDA:0,_RNvMNtNtNtCs1eKvc9ZrgUW_10karva_core10extensions4tags4skipNtB2_7SkipTag11should_skip
FNDA:3,_RNvMNtNtNtCs1eKvc9ZrgUW_10karva_core10extensions4tags4skipNtB2_7SkipTag20try_from_pytest_mark
FNDA:0,_RNvMNtNtNtCs1eKvc9ZrgUW_10karva_core10extensions4tags4skipNtB2_7SkipTag3new
FNDA:3,_RNvMNtNtNtCs1eKvc9ZrgUW_10karva_core10extensions4tags4skipNtB2_7SkipTag6reason
FNDA:3,_RNvXs_NtNtNtCs1eKvc9ZrgUW_10karva_core10extensions4tags4skipNtB4_7SkipTagINtNtCs3vi8RLxhvdw_4core7convert7TryFromRINtNtCsaGZDKDLuEaS_4pyo38instance5BoundNtNtNtB1T_5types3any5PyAnyEE8try_from
FNDA:1,_RNCNCNCNvMNtNtNtCs1eKvc9ZrgUW_10karva_core10extensions4tags4skipNtB8_7SkipTag20try_from_pytest_mark000Be_
FNDA:2,_RNCNCNvMNtNtNtCs1eKvc9ZrgUW_10karva_core10extensions4tags4skipNtB6_7SkipTag20try_from_pytest_mark00Bc_
FNDA:2,_RNCNvMNtNtNtCs1eKvc9ZrgUW_10karva_core10extensions4tags4skipNtB4_7SkipTag20try_from_pytest_mark0Ba_
FNDA:1,_RNCNvMNtNtNtCs1eKvc9ZrgUW_10karva_core10extensions4tags4skipNtB4_7SkipTag20try_from_pytest_marks_0Ba_
FNF:9
FNH:9
DA:14,14
DA:15,14
DA:16,14
DA:18,23
DA:19,23
DA:20,23
DA:25,26
DA:26,26
DA:27,10
DA:29,16
DA:31,26
DA:33,15
DA:34,15
DA:35,15
DA:38,15
DA:39,15
DA:40,15
DA:41,12
DA:42,12
DA:43,10
DA:44,10
DA:47,2
DA:48,0
DA:49,0
DA:51,0
DA:54,15
DA:55,6
DA:56,6
DA:58,5
DA:59,5
DA:60,5
DA:61,5
DA:62,5
DA:63,5
DA:65,1
DA:67,6
DA:68,9
DA:71,15
DA:72,15
DA:78,15
DA:79,15
DA:80,15
BRF:0
BRH:0
LF:44
LH:41
end_of_record
SF:/home/matthew/develop/personal/karva/crates/karva_core/src/extensions/tags/use_fixtures.rs
FN:25,_RNCNvMNtNtNtCs4RrqI5pJN37_10karva_core10extensions4tags12use_fixturesNtB4_14UseFixturesTag20try_from_pytest_mark0Ba_
FN:18,_RNvMNtNtNtCs4RrqI5pJN37_10karva_core10extensions4tags12use_fixturesNtB2_14UseFixturesTag13fixture_names
FN:22,_RNvMNtNtNtCs4RrqI5pJN37_10karva_core10extensions4tags12use_fixturesNtB2_14UseFixturesTag20try_from_pytest_mark
FN:14,_RNvMNtNtNtCs4RrqI5pJN37_10karva_core10extensions4tags12use_fixturesNtB2_14UseFixturesTag3new
FN:32,_RNvXs_NtNtNtCs4RrqI5pJN37_10karva_core10extensions4tags12use_fixturesNtB4_14UseFixturesTagINtNtCs3vi8RLxhvdw_4core7convert7TryFromRINtNtCsaGZDKDLuEaS_4pyo38instance5BoundNtNtNtB2a_5types3any5PyAnyEE8try_from
FN:25,_RNCNvMNtNtNtCs1eKvc9ZrgUW_10karva_core10extensions4tags12use_fixturesNtB4_14UseFixturesTag20try_from_pytest_mark0Ba_
FN:18,_RNvMNtNtNtCs1eKvc9ZrgUW_10karva_core10extensions4tags12use_fixturesNtB2_14UseFixturesTag13fixture_names
FN:22,_RNvMNtNtNtCs1eKvc9ZrgUW_10karva_core10extensions4tags12use_fixturesNtB2_14UseFixturesTag20try_from_pytest_mark
FN:14,_RNvMNtNtNtCs1eKvc9ZrgUW_10karva_core10extensions4tags12use_fixturesNtB2_14UseFixturesTag3new
FN:32,_RNvXs_NtNtNtCs1eKvc9ZrgUW_10karva_core10extensions4tags12use_fixturesNtB4_14UseFixturesTagINtNtCs3vi8RLxhvdw_4core7convert7TryFromRINtNtCsaGZDKDLuEaS_4pyo38instance5BoundNtNtNtB2a_5types3any5PyAnyEE8try_from
FNDA:5,_RNCNvMNtNtNtCs4RrqI5pJN37_10karva_core10extensions4tags12use_fixturesNtB4_14UseFixturesTag20try_from_pytest_mark0Ba_
FNDA:100,_RNvMNtNtNtCs4RrqI5pJN37_10karva_core10extensions4tags12use_fixturesNtB2_14UseFixturesTag13fixture_names
FNDA:5,_RNvMNtNtNtCs4RrqI5pJN37_10karva_core10extensions4tags12use_fixturesNtB2_14UseFixturesTag20try_from_pytest_mark
FNDA:16,_RNvMNtNtNtCs4RrqI5pJN37_10karva_core10extensions4tags12use_fixturesNtB2_14UseFixturesTag3new
FNDA:5,_RNvXs_NtNtNtCs4RrqI5pJN37_10karva_core10extensions4tags12use_fixturesNtB4_14UseFixturesTagINtNtCs3vi8RLxhvdw_4core7convert7TryFromRINtNtCsaGZDKDLuEaS_4pyo38instance5BoundNtNtNtB2a_5types3any5PyAnyEE8try_from
FNDA:5,_RNCNvMNtNtNtCs1eKvc9ZrgUW_10karva_core10extensions4tags12use_fixturesNtB4_14UseFixturesTag20try_from_pytest_mark0Ba_
FNDA:10,_RNvMNtNtNtCs1eKvc9ZrgUW_10karva_core10extensions4tags12use_fixturesNtB2_14UseFixturesTag13fixture_names
FNDA:5,_RNvMNtNtNtCs1eKvc9ZrgUW_10karva_core10extensions4tags12use_fixturesNtB2_14UseFixturesTag20try_from_pytest_mark
FNDA:10,_RNvMNtNtNtCs1eKvc9ZrgUW_10karva_core10extensions4tags12use_fixturesNtB2_14UseFixturesTag3new
FNDA:5,_RNvXs_NtNtNtCs1eKvc9ZrgUW_10karva_core10extensions4tags12use_fixturesNtB4_14UseFixturesTagINtNtCs3vi8RLxhvdw_4core7convert7TryFromRINtNtCsaGZDKDLuEaS_4pyo38instance5BoundNtNtNtB2a_5types3any5PyAnyEE8try_from
FNF:5
FNH:5
DA:14,26
DA:15,26
DA:16,26
DA:18,110
DA:19,110
DA:20,110
DA:22,10
DA:23,10
DA:24,10
DA:25,10
DA:26,10
DA:32,10
DA:33,10
DA:34,10
BRF:0
BRH:0
LF:15
LH:15
end_of_record
SF:/home/matthew/develop/personal/karva/crates/karva_core/src/name.rs
FN:42,_RINvMs0_NtCs4RrqI5pJN37_10karva_core4nameNtB6_10ModulePath3newRNtCs6l2BbXnFYWC_6camino11Utf8PathBufEB8_
FN:19,_RNvMNtCs4RrqI5pJN37_10karva_core4nameNtB2_21QualifiedFunctionName13function_name
FN:12,_RNvMNtCs4RrqI5pJN37_10karva_core4nameNtB2_21QualifiedFunctionName3new
FN:48,_RNvMs0_NtCs4RrqI5pJN37_10karva_core4nameNtB5_10ModulePath11module_name
FN:52,_RNvMs0_NtCs4RrqI5pJN37_10karva_core4nameNtB5_10ModulePath4path
FN:25,_RNvXs_NtCs4RrqI5pJN37_10karva_core4nameNtB4_21QualifiedFunctionNameNtNtCs3vi8RLxhvdw_4core3fmt7Display3fmt
FN:19,_RNvMNtCs1eKvc9ZrgUW_10karva_core4nameNtB2_21QualifiedFunctionName13function_name
FN:12,_RNvMNtCs1eKvc9ZrgUW_10karva_core4nameNtB2_21QualifiedFunctionName3new
FN:48,_RNvMs0_NtCs1eKvc9ZrgUW_10karva_core4nameNtB5_10ModulePath11module_name
FN:52,_RNvMs0_NtCs1eKvc9ZrgUW_10karva_core4nameNtB5_10ModulePath4path
FN:25,_RNvXs_NtCs1eKvc9ZrgUW_10karva_core4nameNtB4_21QualifiedFunctionNameNtNtCs3vi8RLxhvdw_4core3fmt7Display3fmt
FN:42,_RINvMs0_NtCs1eKvc9ZrgUW_10karva_core4nameNtB6_10ModulePath3newRNtCs6l2BbXnFYWC_6camino11Utf8PathBufEB8_
FNDA:179,_RINvMs0_NtCs4RrqI5pJN37_10karva_core4nameNtB6_10ModulePath3newRNtCs6l2BbXnFYWC_6camino11Utf8PathBufEB8_
FNDA:482,_RNvMNtCs4RrqI5pJN37_10karva_core4nameNtB2_21QualifiedFunctionName13function_name
FNDA:313,_RNvMNtCs4RrqI5pJN37_10karva_core4nameNtB2_21QualifiedFunctionName3new
FNDA:506,_RNvMs0_NtCs4RrqI5pJN37_10karva_core4nameNtB5_10ModulePath11module_name
FNDA:2611,_RNvMs0_NtCs4RrqI5pJN37_10karva_core4nameNtB5_10ModulePath4path
FNDA:327,_RNvXs_NtCs4RrqI5pJN37_10karva_core4nameNtB4_21QualifiedFunctionNameNtNtCs3vi8RLxhvdw_4core3fmt7Display3fmt
FNDA:360,_RNvMNtCs1eKvc9ZrgUW_10karva_core4nameNtB2_21QualifiedFunctionName13function_name
FNDA:155,_RNvMNtCs1eKvc9ZrgUW_10karva_core4nameNtB2_21QualifiedFunctionName3new
FNDA:213,_RNvMs0_NtCs1eKvc9ZrgUW_10karva_core4nameNtB5_10ModulePath11module_name
FNDA:2080,_RNvMs0_NtCs1eKvc9ZrgUW_10karva_core4nameNtB5_10ModulePath4path
FNDA:6,_RNvXs_NtCs1eKvc9ZrgUW_10karva_core4nameNtB4_21QualifiedFunctionNameNtNtCs3vi8RLxhvdw_4core3fmt7Display3fmt
FNDA:126,_RINvMs0_NtCs1eKvc9ZrgUW_10karva_core4nameNtB6_10ModulePath3newRNtCs6l2BbXnFYWC_6camino11Utf8PathBufEB8_
FNF:6
FNH:6
DA:12,468
DA:13,468
DA:14,468
DA:15,468
DA:16,468
DA:17,468
DA:19,842
DA:20,842
DA:21,842
DA:25,333
DA:26,333
DA:27,333
DA:28,333
DA:29,333
DA:32,333
DA:42,305
DA:43,305
DA:44,305
DA:45,305
DA:46,305
DA:48,719
DA:49,719
DA:50,719
DA:52,4691
DA:53,4691
DA:54,4691
BRF:0
BRH:0
LF:26
LH:26
end_of_record
SF:/home/matthew/develop/personal/karva/crates/karva_core/src/python.rs
FN:10,_RNvNtCs4RrqI5pJN37_10karva_core6python11init_module
FN:10,_RNvNtCs1eKvc9ZrgUW_10karva_core6python11init_module
FNDA:1,_RNvNtCs4RrqI5pJN37_10karva_core6python11init_module
FNDA:1,_RNvNtCs1eKvc9ZrgUW_10karva_core6python11init_module
FNF:1
FNH:1
DA:10,2
DA:11,2
DA:12,2
DA:13,2
DA:14,2
DA:15,2
DA:16,2
DA:17,2
DA:18,2
DA:19,2
DA:20,2
DA:21,2
DA:22,2
DA:23,2
BRF:0
BRH:0
LF:14
LH:14
end_of_record
SF:/home/matthew/develop/personal/karva/crates/karva_core/src/runner/diagnostic.rs
FN:152,_RNvMs1_NtNtCs4RrqI5pJN37_10karva_core6runner10diagnosticNtB5_15TestResultStats10add_failed
FN:156,_RNvMs1_NtNtCs4RrqI5pJN37_10karva_core6runner10diagnosticNtB5_15TestResultStats10add_passed
FN:128,_RNvMs1_NtNtCs4RrqI5pJN37_10karva_core6runner10diagnosticNtB5_15TestResultStats10is_success
FN:160,_RNvMs1_NtNtCs4RrqI5pJN37_10karva_core6runner10diagnosticNtB5_15TestResultStats11add_skipped
FN:148,_RNvMs1_NtNtCs4RrqI5pJN37_10karva_core6runner10diagnosticNtB5_15TestResultStats3add
FN:132,_RNvMs1_NtNtCs4RrqI5pJN37_10karva_core6runner10diagnosticNtB5_15TestResultStats3get
FN:124,_RNvMs1_NtNtCs4RrqI5pJN37_10karva_core6runner10diagnosticNtB5_15TestResultStats5total
FN:140,_RNvMs1_NtNtCs4RrqI5pJN37_10karva_core6runner10diagnosticNtB5_15TestResultStats6failed
FN:136,_RNvMs1_NtNtCs4RrqI5pJN37_10karva_core6runner10diagnosticNtB5_15TestResultStats6passed
FN:164,_RNvMs1_NtNtCs4RrqI5pJN37_10karva_core6runner10diagnosticNtB5_15TestResultStats7display
FN:144,_RNvMs1_NtNtCs4RrqI5pJN37_10karva_core6runner10diagnosticNtB5_15TestResultStats7skipped
FN:174,_RNvMs2_NtNtCs4RrqI5pJN37_10karva_core6runner10diagnosticNtB5_20DisplayTestRunResult3new
FN:273,_RNvMs4_NtNtCs4RrqI5pJN37_10karva_core6runner10diagnosticNtB5_22DisplayTestResultStats3new
FN:35,_RNvMs_NtNtCs4RrqI5pJN37_10karva_core6runner10diagnosticNtB4_13TestRunResult11diagnostics
FN:31,_RNvMs_NtNtCs4RrqI5pJN37_10karva_core6runner10diagnosticNtB4_13TestRunResult17total_diagnostics
FN:45,_RNvMs_NtNtCs4RrqI5pJN37_10karva_core6runner10diagnosticNtB4_13TestRunResult19add_test_diagnostic
FN:39,_RNvMs_NtNtCs4RrqI5pJN37_10karva_core6runner10diagnosticNtB4_13TestRunResult20add_test_diagnostics
FN:49,_RNvMs_NtNtCs4RrqI5pJN37_10karva_core6runner10diagnosticNtB4_13TestRunResult21discovery_diagnostics
FN:53,_RNvMs_NtNtCs4RrqI5pJN37_10karva_core6runner10diagnosticNtB4_13TestRunResult25add_discovery_diagnostics
FN:77,_RNvMs_NtNtCs4RrqI5pJN37_10karva_core6runner10diagnosticNtB4_13TestRunResult25register_test_case_result
FN:68,_RNvMs_NtNtCs4RrqI5pJN37_10karva_core6runner10diagnosticNtB4_13TestRunResult5stats
FN:59,_RNvMs_NtNtCs4RrqI5pJN37_10karva_core6runner10diagnosticNtB4_13TestRunResult6passed
FN:89,_RNvMs_NtNtCs4RrqI5pJN37_10karva_core6runner10diagnosticNtB4_13TestRunResult7display
FN:20,_RNvXNtNtCs4RrqI5pJN37_10karva_core6runner10diagnosticNtB2_13TestRunResultNtNtCs3vi8RLxhvdw_4core7default7Default7default
FN:102,_RNvXs0_NtNtCs4RrqI5pJN37_10karva_core6runner10diagnosticNtB5_14TestResultKindINtNtCs3vi8RLxhvdw_4core7convert4FromNtB5_24IndividualTestResultKindE4from
FN:180,_RNvXs3_NtNtCs4RrqI5pJN37_10karva_core6runner10diagnosticNtB5_20DisplayTestRunResultNtNtCs3vi8RLxhvdw_4core3fmt7Display3fmt
FN:279,_RNvXs5_NtNtCs4RrqI5pJN37_10karva_core6runner10diagnosticNtB5_22DisplayTestResultStatsNtNtCs3vi8RLxhvdw_4core3fmt7Display3fmt
FN:195,_RNCNvXs3_NtNtCs4RrqI5pJN37_10karva_core6runner10diagnosticNtB7_20DisplayTestRunResultNtNtCs3vi8RLxhvdw_4core3fmt7Display3fmt0Bb_
FN:209,_RNCNvXs3_NtNtCs4RrqI5pJN37_10karva_core6runner10diagnosticNtB7_20DisplayTestRunResultNtNtCs3vi8RLxhvdw_4core3fmt7Display3fmts0_0Bb_
FN:202,_RNCNvXs3_NtNtCs4RrqI5pJN37_10karva_core6runner10diagnosticNtB7_20DisplayTestRunResultNtNtCs3vi8RLxhvdw_4core3fmt7Display3fmts_0Bb_
FN:31,_RNvMs_NtNtCs1eKvc9ZrgUW_10karva_core6runner10diagnosticNtB4_13TestRunResult17total_diagnostics
FN:59,_RNvMs_NtNtCs1eKvc9ZrgUW_10karva_core6runner10diagnosticNtB4_13TestRunResult6passed
FN:195,_RNCNvXs3_NtNtCs1eKvc9ZrgUW_10karva_core6runner10diagnosticNtB7_20DisplayTestRunResultNtNtCs3vi8RLxhvdw_4core3fmt7Display3fmt0Bb_
FN:209,_RNCNvXs3_NtNtCs1eKvc9ZrgUW_10karva_core6runner10diagnosticNtB7_20DisplayTestRunResultNtNtCs3vi8RLxhvdw_4core3fmt7Display3fmts0_0Bb_
FN:202,_RNCNvXs3_NtNtCs1eKvc9ZrgUW_10karva_core6runner10diagnosticNtB7_20DisplayTestRunResultNtNtCs3vi8RLxhvdw_4core3fmt7Display3fmts_0Bb_
FN:152,_RNvMs1_NtNtCs1eKvc9ZrgUW_10karva_core6runner10diagnosticNtB5_15TestResultStats10add_failed
FN:156,_RNvMs1_NtNtCs1eKvc9ZrgUW_10karva_core6runner10diagnosticNtB5_15TestResultStats10add_passed
FN:128,_RNvMs1_NtNtCs1eKvc9ZrgUW_10karva_core6runner10diagnosticNtB5_15TestResultStats10is_success
FN:160,_RNvMs1_NtNtCs1eKvc9ZrgUW_10karva_core6runner10diagnosticNtB5_15TestResultStats11add_skipped
FN:148,_RNvMs1_NtNtCs1eKvc9ZrgUW_10karva_core6runner10diagnosticNtB5_15TestResultStats3add
FN:132,_RNvMs1_NtNtCs1eKvc9ZrgUW_10karva_core6runner10diagnosticNtB5_15TestResultStats3get
FN:124,_RNvMs1_NtNtCs1eKvc9ZrgUW_10karva_core6runner10diagnosticNtB5_15TestResultStats5total
FN:140,_RNvMs1_NtNtCs1eKvc9ZrgUW_10karva_core6runner10diagnosticNtB5_15TestResultStats6failed
FN:136,_RNvMs1_NtNtCs1eKvc9ZrgUW_10karva_core6runner10diagnosticNtB5_15TestResultStats6passed
FN:164,_RNvMs1_NtNtCs1eKvc9ZrgUW_10karva_core6runner10diagnosticNtB5_15TestResultStats7display
FN:144,_RNvMs1_NtNtCs1eKvc9ZrgUW_10karva_core6runner10diagnosticNtB5_15TestResultStats7skipped
FN:174,_RNvMs2_NtNtCs1eKvc9ZrgUW_10karva_core6runner10diagnosticNtB5_20DisplayTestRunResult3new
FN:273,_RNvMs4_NtNtCs1eKvc9ZrgUW_10karva_core6runner10diagnosticNtB5_22DisplayTestResultStats3new
FN:35,_RNvMs_NtNtCs1eKvc9ZrgUW_10karva_core6runner10diagnosticNtB4_13TestRunResult11diagnostics
FN:45,_RNvMs_NtNtCs1eKvc9ZrgUW_10karva_core6runner10diagnosticNtB4_13TestRunResult19add_test_diagnostic
FN:39,_RNvMs_NtNtCs1eKvc9ZrgUW_10karva_core6runner10diagnosticNtB4_13TestRunResult20add_test_diagnostics
FN:49,_RNvMs_NtNtCs1eKvc9ZrgUW_10karva_core6runner10diagnosticNtB4_13TestRunResult21discovery_diagnostics
FN:53,_RNvMs_NtNtCs1eKvc9ZrgUW_10karva_core6runner10diagnosticNtB4_13TestRunResult25add_discovery_diagnostics
FN:77,_RNvMs_NtNtCs1eKvc9ZrgUW_10karva_core6runner10diagnosticNtB4_13TestRunResult25register_test_case_result
FN:68,_RNvMs_NtNtCs1eKvc9ZrgUW_10karva_core6runner10diagnosticNtB4_13TestRunResult5stats
FN:89,_RNvMs_NtNtCs1eKvc9ZrgUW_10karva_core6runner10diagnosticNtB4_13TestRunResult7display
FN:73,_RNvMs_NtNtCs1eKvc9ZrgUW_10karva_core6runner10diagnosticNtB4_13TestRunResult9stats_mut
FN:20,_RNvXNtNtCs1eKvc9ZrgUW_10karva_core6runner10diagnosticNtB2_13TestRunResultNtNtCs3vi8RLxhvdw_4core7default7Default7default
FN:102,_RNvXs0_NtNtCs1eKvc9ZrgUW_10karva_core6runner10diagnosticNtB5_14TestResultKindINtNtCs3vi8RLxhvdw_4core7convert4FromNtB5_24IndividualTestResultKindE4from
FN:180,_RNvXs3_NtNtCs1eKvc9ZrgUW_10karva_core6runner10diagnosticNtB5_20DisplayTestRunResultNtNtCs3vi8RLxhvdw_4core3fmt7Display3fmt
FN:279,_RNvXs5_NtNtCs1eKvc9ZrgUW_10karva_core6runner10diagnosticNtB5_22DisplayTestResultStatsNtNtCs3vi8RLxhvdw_4core3fmt7Display3fmt
FN:364,_RNvNtNtNtCs1eKvc9ZrgUW_10karva_core6runner10diagnostic5testss_21test_display_no_tests
FN:319,_RNvNtNtNtCs1eKvc9ZrgUW_10karva_core6runner10diagnostic5testss_23test_display_all_passed
FN:341,_RNvNtNtNtCs1eKvc9ZrgUW_10karva_core6runner10diagnostic5testss_25test_display_with_skipped
FN:352,_RNvNtNtNtCs1eKvc9ZrgUW_10karva_core6runner10diagnostic5testss_26test_display_mixed_results
FN:330,_RNvNtNtNtCs1eKvc9ZrgUW_10karva_core6runner10diagnostic5testss_26test_display_with_failures
FN:372,_RNvNtNtNtCs1eKvc9ZrgUW_10karva_core6runner10diagnostic5testss_28test_diagnostic_stats_totals
FNDA:0,_RNvMs1_NtNtCs4RrqI5pJN37_10karva_core6runner10diagnosticNtB5_15TestResultStats10add_failed
FNDA:0,_RNvMs1_NtNtCs4RrqI5pJN37_10karva_core6runner10diagnosticNtB5_15TestResultStats10add_passed
FNDA:155,_RNvMs1_NtNtCs4RrqI5pJN37_10karva_core6runner10diagnosticNtB5_15TestResultStats10is_success
FNDA:0,_RNvMs1_NtNtCs4RrqI5pJN37_10karva_core6runner10diagnosticNtB5_15TestResultStats11add_skipped
FNDA:271,_RNvMs1_NtNtCs4RrqI5pJN37_10karva_core6runner10diagnosticNtB5_15TestResultStats3add
FNDA:620,_RNvMs1_NtNtCs4RrqI5pJN37_10karva_core6runner10diagnosticNtB5_15TestResultStats3get
FNDA:0,_RNvMs1_NtNtCs4RrqI5pJN37_10karva_core6runner10diagnosticNtB5_15TestResultStats5total
FNDA:310,_RNvMs1_NtNtCs4RrqI5pJN37_10karva_core6runner10diagnosticNtB5_15TestResultStats6failed
FNDA:155,_RNvMs1_NtNtCs4RrqI5pJN37_10karva_core6runner10diagnosticNtB5_15TestResultStats6passed
FNDA:155,_RNvMs1_NtNtCs4RrqI5pJN37_10karva_core6runner10diagnosticNtB5_15TestResultStats7display
FNDA:155,_RNvMs1_NtNtCs4RrqI5pJN37_10karva_core6runner10diagnosticNtB5_15TestResultStats7skipped
FNDA:155,_RNvMs2_NtNtCs4RrqI5pJN37_10karva_core6runner10diagnosticNtB5_20DisplayTestRunResult3new
FNDA:155,_RNvMs4_NtNtCs4RrqI5pJN37_10karva_core6runner10diagnosticNtB5_22DisplayTestResultStats3new
FNDA:466,_RNvMs_NtNtCs4RrqI5pJN37_10karva_core6runner10diagnosticNtB4_13TestRunResult11diagnostics
FNDA:1,_RNvMs_NtNtCs4RrqI5pJN37_10karva_core6runner10diagnosticNtB4_13TestRunResult17total_diagnostics
FNDA:14,_RNvMs_NtNtCs4RrqI5pJN37_10karva_core6runner10diagnosticNtB4_13TestRunResult19add_test_diagnostic
FNDA:1518,_RNvMs_NtNtCs4RrqI5pJN37_10karva_core6runner10diagnosticNtB4_13TestRunResult20add_test_diagnostics
FNDA:156,_RNvMs_NtNtCs4RrqI5pJN37_10karva_core6runner10diagnosticNtB4_13TestRunResult21discovery_diagnostics
FNDA:155,_RNvMs_NtNtCs4RrqI5pJN37_10karva_core6runner10diagnosticNtB4_13TestRunResult25add_discovery_diagnostics
FNDA:271,_RNvMs_NtNtCs4RrqI5pJN37_10karva_core6runner10diagnosticNtB4_13TestRunResult25register_test_case_result
FNDA:155,_RNvMs_NtNtCs4RrqI5pJN37_10karva_core6runner10diagnosticNtB4_13TestRunResult5stats
FNDA:0,_RNvMs_NtNtCs4RrqI5pJN37_10karva_core6runner10diagnosticNtB4_13TestRunResult6passed
FNDA:155,_RNvMs_NtNtCs4RrqI5pJN37_10karva_core6runner10diagnosticNtB4_13TestRunResult7display
FNDA:155,_RNvXNtNtCs4RrqI5pJN37_10karva_core6runner10diagnosticNtB2_13TestRunResultNtNtCs3vi8RLxhvdw_4core7default7Default7default
FNDA:271,_RNvXs0_NtNtCs4RrqI5pJN37_10karva_core6runner10diagnosticNtB5_14TestResultKindINtNtCs3vi8RLxhvdw_4core7convert4FromNtB5_24IndividualTestResultKindE4from
FNDA:155,_RNvXs3_NtNtCs4RrqI5pJN37_10karva_core6runner10diagnosticNtB5_20DisplayTestRunResultNtNtCs3vi8RLxhvdw_4core3fmt7Display3fmt
FNDA:155,_RNvXs5_NtNtCs4RrqI5pJN37_10karva_core6runner10diagnosticNtB5_22DisplayTestResultStatsNtNtCs3vi8RLxhvdw_4core3fmt7Display3fmt
FNDA:16,_RNCNvXs3_NtNtCs4RrqI5pJN37_10karva_core6runner10diagnosticNtB7_20DisplayTestRunResultNtNtCs3vi8RLxhvdw_4core3fmt7Display3fmt0Bb_
FNDA:16,_RNCNvXs3_NtNtCs4RrqI5pJN37_10karva_core6runner10diagnosticNtB7_20DisplayTestRunResultNtNtCs3vi8RLxhvdw_4core3fmt7Display3fmts0_0Bb_
FNDA:16,_RNCNvXs3_NtNtCs4RrqI5pJN37_10karva_core6runner10diagnosticNtB7_20DisplayTestRunResultNtNtCs3vi8RLxhvdw_4core3fmt7Display3fmts_0Bb_
FNDA:0,_RNvMs_NtNtCs1eKvc9ZrgUW_10karva_core6runner10diagnosticNtB4_13TestRunResult17total_diagnostics
FNDA:0,_RNvMs_NtNtCs1eKvc9ZrgUW_10karva_core6runner10diagnosticNtB4_13TestRunResult6passed
FNDA:2,_RNCNvXs3_NtNtCs1eKvc9ZrgUW_10karva_core6runner10diagnosticNtB7_20DisplayTestRunResultNtNtCs3vi8RLxhvdw_4core3fmt7Display3fmt0Bb_
FNDA:2,_RNCNvXs3_NtNtCs1eKvc9ZrgUW_10karva_core6runner10diagnosticNtB7_20DisplayTestRunResultNtNtCs3vi8RLxhvdw_4core3fmt7Display3fmts0_0Bb_
FNDA:2,_RNCNvXs3_NtNtCs1eKvc9ZrgUW_10karva_core6runner10diagnosticNtB7_20DisplayTestRunResultNtNtCs3vi8RLxhvdw_4core3fmt7Display3fmts_0Bb_
FNDA:4,_RNvMs1_NtNtCs1eKvc9ZrgUW_10karva_core6runner10diagnosticNtB5_15TestResultStats10add_failed
FNDA:9,_RNvMs1_NtNtCs1eKvc9ZrgUW_10karva_core6runner10diagnosticNtB5_15TestResultStats10add_passed
FNDA:8,_RNvMs1_NtNtCs1eKvc9ZrgUW_10karva_core6runner10diagnosticNtB5_15TestResultStats10is_success
FNDA:4,_RNvMs1_NtNtCs1eKvc9ZrgUW_10karva_core6runner10diagnosticNtB5_15TestResultStats11add_skipped
FNDA:19,_RNvMs1_NtNtCs1eKvc9ZrgUW_10karva_core6runner10diagnosticNtB5_15TestResultStats3add
FNDA:32,_RNvMs1_NtNtCs1eKvc9ZrgUW_10karva_core6runner10diagnosticNtB5_15TestResultStats3get
FNDA:1,_RNvMs1_NtNtCs1eKvc9ZrgUW_10karva_core6runner10diagnosticNtB5_15TestResultStats5total
FNDA:16,_RNvMs1_NtNtCs1eKvc9ZrgUW_10karva_core6runner10diagnosticNtB5_15TestResultStats6failed
FNDA:8,_RNvMs1_NtNtCs1eKvc9ZrgUW_10karva_core6runner10diagnosticNtB5_15TestResultStats6passed
FNDA:7,_RNvMs1_NtNtCs1eKvc9ZrgUW_10karva_core6runner10diagnosticNtB5_15TestResultStats7display
FNDA:8,_RNvMs1_NtNtCs1eKvc9ZrgUW_10karva_core6runner10diagnosticNtB5_15TestResultStats7skipped
FNDA:7,_RNvMs2_NtNtCs1eKvc9ZrgUW_10karva_core6runner10diagnosticNtB5_20DisplayTestRunResult3new
FNDA:7,_RNvMs4_NtNtCs1eKvc9ZrgUW_10karva_core6runner10diagnosticNtB5_22DisplayTestResultStats3new
FNDA:21,_RNvMs_NtNtCs1eKvc9ZrgUW_10karva_core6runner10diagnosticNtB4_13TestRunResult11diagnostics
FNDA:0,_RNvMs_NtNtCs1eKvc9ZrgUW_10karva_core6runner10diagnosticNtB4_13TestRunResult19add_test_diagnostic
FNDA:16,_RNvMs_NtNtCs1eKvc9ZrgUW_10karva_core6runner10diagnosticNtB4_13TestRunResult20add_test_diagnostics
FNDA:7,_RNvMs_NtNtCs1eKvc9ZrgUW_10karva_core6runner10diagnosticNtB4_13TestRunResult21discovery_diagnostics
FNDA:2,_RNvMs_NtNtCs1eKvc9ZrgUW_10karva_core6runner10diagnosticNtB4_13TestRunResult25add_discovery_diagnostics
FNDA:2,_RNvMs_NtNtCs1eKvc9ZrgUW_10karva_core6runner10diagnosticNtB4_13TestRunResult25register_test_case_result
FNDA:7,_RNvMs_NtNtCs1eKvc9ZrgUW_10karva_core6runner10diagnosticNtB4_13TestRunResult5stats
FNDA:7,_RNvMs_NtNtCs1eKvc9ZrgUW_10karva_core6runner10diagnosticNtB4_13TestRunResult7display
FNDA:13,_RNvMs_NtNtCs1eKvc9ZrgUW_10karva_core6runner10diagnosticNtB4_13TestRunResult9stats_mut
FNDA:7,_RNvXNtNtCs1eKvc9ZrgUW_10karva_core6runner10diagnosticNtB2_13TestRunResultNtNtCs3vi8RLxhvdw_4core7default7Default7default
FNDA:2,_RNvXs0_NtNtCs1eKvc9ZrgUW_10karva_core6runner10diagnosticNtB5_14TestResultKindINtNtCs3vi8RLxhvdw_4core7convert4FromNtB5_24IndividualTestResultKindE4from
FNDA:7,_RNvXs3_NtNtCs1eKvc9ZrgUW_10karva_core6runner10diagnosticNtB5_20DisplayTestRunResultNtNtCs3vi8RLxhvdw_4core3fmt7Display3fmt
FNDA:7,_RNvXs5_NtNtCs1eKvc9ZrgUW_10karva_core6runner10diagnosticNtB5_22DisplayTestResultStatsNtNtCs3vi8RLxhvdw_4core3fmt7Display3fmt
FNDA:1,_RNvNtNtNtCs1eKvc9ZrgUW_10karva_core6runner10diagnostic5testss_21test_display_no_tests
FNDA:1,_RNvNtNtNtCs1eKvc9ZrgUW_10karva_core6runner10diagnostic5testss_23test_display_all_passed
FNDA:1,_RNvNtNtNtCs1eKvc9ZrgUW_10karva_core6runner10diagnostic5testss_25test_display_with_skipped
FNDA:1,_RNvNtNtNtCs1eKvc9ZrgUW_10karva_core6runner10diagnostic5testss_26test_display_mixed_results
FNDA:1,_RNvNtNtNtCs1eKvc9ZrgUW_10karva_core6runner10diagnostic5testss_26test_display_with_failures
FNDA:1,_RNvNtNtNtCs1eKvc9ZrgUW_10karva_core6runner10diagnostic5testss_28test_diagnostic_stats_totals
FNF:37
FNH:36
DA:20,162
DA:21,162
DA:22,162
DA:23,162
DA:24,162
DA:25,162
DA:26,162
DA:27,162
DA:31,1
DA:32,1
DA:33,1
DA:35,487
DA:36,487
DA:37,487
DA:39,1534
DA:40,1538
DA:41,4
DA:42,4
DA:43,1534
DA:45,14
DA:46,14
DA:47,14
DA:49,163
DA:50,163
DA:51,163
DA:53,157
DA:54,158
DA:55,1
DA:56,1
DA:57,157
DA:59,0
DA:60,0
DA:61,0
DA:62,0
DA:63,0
DA:65,0
DA:66,0
DA:68,162
DA:69,162
DA:70,162
DA:73,13
DA:74,13
DA:75,13
DA:77,273
DA:78,273
DA:79,273
DA:80,273
DA:81,273
DA:82,273
DA:83,273
DA:84,273
DA:85,273
DA:86,273
DA:87,273
DA:89,162
DA:90,162
DA:91,162
DA:102,273
DA:103,273
DA:104,227
DA:105,14
DA:106,32
DA:108,273
DA:124,1
DA:125,1
DA:126,1
DA:128,163
DA:129,163
DA:130,163
DA:132,652
DA:133,652
DA:134,652
DA:136,163
DA:137,163
DA:138,163
DA:140,326
DA:141,326
DA:142,326
DA:144,163
DA:145,163
DA:146,163
DA:148,290
DA:149,290
DA:150,290
DA:152,4
DA:153,4
DA:154,4
DA:156,9
DA:157,9
DA:158,9
DA:160,4
DA:161,4
DA:162,4
DA:164,162
DA:165,162
DA:166,162
DA:174,162
DA:175,162
DA:176,162
DA:180,162
DA:181,162
DA:182,1
DA:184,1
DA:186,1
DA:187,1
DA:188,1
DA:189,161
DA:191,162
DA:192,162
DA:193,162
DA:194,162
DA:195,162
DA:196,162
DA:198,162
DA:199,162
DA:200,162
DA:201,162
DA:202,162
DA:203,162
DA:205,162
DA:206,162
DA:207,162
DA:208,162
DA:209,162
DA:210,162
DA:212,162
DA:213,2
DA:214,2
DA:216,4
DA:217,2
DA:219,160
DA:221,162
DA:222,14
DA:223,14
DA:225,28
DA:226,14
DA:228,148
DA:230,162
DA:231,2
DA:232,2
DA:234,4
DA:235,2
DA:237,160
DA:239,162
DA:240,14
DA:242,28
DA:244,14
DA:245,14
DA:246,14
DA:248,0
DA:251,14
DA:254,14
DA:255,148
DA:257,162
DA:258,162
DA:259,162
DA:260,162
DA:261,162
DA:262,162
DA:264,162
DA:273,162
DA:274,162
DA:275,162
DA:279,162
DA:280,162
DA:282,162
DA:284,162
DA:285,146
DA:287,16
DA:290,162
DA:291,162
DA:292,162
DA:293,162
DA:294,162
DA:295,162
DA:296,162
DA:298,162
DA:319,1
DA:320,1
DA:321,1
DA:322,1
DA:323,1
DA:325,1
DA:326,1
DA:327,1
DA:330,1
DA:331,1
DA:332,1
DA:333,1
DA:334,1
DA:336,1
DA:337,1
DA:338,1
DA:341,1
DA:342,1
DA:343,1
DA:344,1
DA:345,1
DA:347,1
DA:348,1
DA:349,1
DA:352,1
DA:353,1
DA:354,1
DA:355,1
DA:356,1
DA:357,1
DA:359,1
DA:360,1
DA:361,1
DA:364,1
DA:365,1
DA:367,1
DA:368,1
DA:369,1
DA:372,1
DA:373,1
DA:374,1
DA:375,1
DA:376,1
DA:377,1
DA:379,1
DA:380,1
DA:381,1
DA:382,1
DA:383,1
DA:384,1
BRF:0
BRH:0
LF:230
LH:218
end_of_record
SF:/home/matthew/develop/personal/karva/crates/karva_core/src/runner/mod.rs
FN:13,_RNvYNtNtCs4RrqI5pJN37_10karva_core6runner18StandardTestRunnerNtB4_10TestRunner4testCseTUHx2WfywD_17integration_tests
FN:24,_RNvMNtCs4RrqI5pJN37_10karva_core6runnerNtB2_18StandardTestRunner3new
FN:28,_RNvMNtCs4RrqI5pJN37_10karva_core6runnerNtB2_18StandardTestRunner9test_impl
FN:51,_RNvXs_NtCs4RrqI5pJN37_10karva_core6runnerNtB4_18StandardTestRunnerNtB4_10TestRunner18test_with_reporter
FN:13,_RNvYpNtNtCs4RrqI5pJN37_10karva_core6runner10TestRunner4testB7_
FN:29,_RNCNvMNtCs4RrqI5pJN37_10karva_core6runnerNtB4_18StandardTestRunner9test_impl0B6_
FN:57,_RNvXs0_NtCs4RrqI5pJN37_10karva_core6runnerNtNtCseKlgFTNzZWo_13karva_project7project7ProjectNtB5_10TestRunner18test_with_reporter
FN:57,_RNvXs0_NtCs1eKvc9ZrgUW_10karva_core6runnerNtNtCseKlgFTNzZWo_13karva_project7project7ProjectNtB5_10TestRunner18test_with_reporter
FN:13,_RNvYNtNtNtCs3Pz4MGtpEaO_10karva_test7context12test_context11TestContextNtNtCs1eKvc9ZrgUW_10karva_core6runner10TestRunner4testB1b_
FN:68,_RNvXs1_NtCs1eKvc9ZrgUW_10karva_core6runnerNtNtNtCs3Pz4MGtpEaO_10karva_test7context12test_context11TestContextNtB5_10TestRunner18test_with_reporter
FN:24,_RNvMNtCs1eKvc9ZrgUW_10karva_core6runnerNtB2_18StandardTestRunner3new
FN:28,_RNvMNtCs1eKvc9ZrgUW_10karva_core6runnerNtB2_18StandardTestRunner9test_impl
FN:51,_RNvXs_NtCs1eKvc9ZrgUW_10karva_core6runnerNtB4_18StandardTestRunnerNtB4_10TestRunner18test_with_reporter
FN:29,_RNCNvMNtCs1eKvc9ZrgUW_10karva_core6runnerNtB4_18StandardTestRunner9test_impl0B6_
FNDA:155,_RNvYNtNtCs4RrqI5pJN37_10karva_core6runner18StandardTestRunnerNtB4_10TestRunner4testCseTUHx2WfywD_17integration_tests
FNDA:155,_RNvMNtCs4RrqI5pJN37_10karva_core6runnerNtB2_18StandardTestRunner3new
FNDA:155,_RNvMNtCs4RrqI5pJN37_10karva_core6runnerNtB2_18StandardTestRunner9test_impl
FNDA:155,_RNvXs_NtCs4RrqI5pJN37_10karva_core6runnerNtB4_18StandardTestRunnerNtB4_10TestRunner18test_with_reporter
FNDA:0,_RNvYpNtNtCs4RrqI5pJN37_10karva_core6runner10TestRunner4testB7_
FNDA:155,_RNCNvMNtCs4RrqI5pJN37_10karva_core6runnerNtB4_18StandardTestRunner9test_impl0B6_
FNDA:0,_RNvXs0_NtCs4RrqI5pJN37_10karva_core6runnerNtNtCseKlgFTNzZWo_13karva_project7project7ProjectNtB5_10TestRunner18test_with_reporter
FNDA:0,_RNvXs0_NtCs1eKvc9ZrgUW_10karva_core6runnerNtNtCseKlgFTNzZWo_13karva_project7project7ProjectNtB5_10TestRunner18test_with_reporter
FNDA:2,_RNvYNtNtNtCs3Pz4MGtpEaO_10karva_test7context12test_context11TestContextNtNtCs1eKvc9ZrgUW_10karva_core6runner10TestRunner4testB1b_
FNDA:2,_RNvXs1_NtCs1eKvc9ZrgUW_10karva_core6runnerNtNtNtCs3Pz4MGtpEaO_10karva_test7context12test_context11TestContextNtB5_10TestRunner18test_with_reporter
FNDA:2,_RNvMNtCs1eKvc9ZrgUW_10karva_core6runnerNtB2_18StandardTestRunner3new
FNDA:2,_RNvMNtCs1eKvc9ZrgUW_10karva_core6runnerNtB2_18StandardTestRunner9test_impl
FNDA:2,_RNvXs_NtCs1eKvc9ZrgUW_10karva_core6runnerNtB4_18StandardTestRunnerNtB4_10TestRunner18test_with_reporter
FNDA:2,_RNCNvMNtCs1eKvc9ZrgUW_10karva_core6runnerNtB4_18StandardTestRunner9test_impl0B6_
FNF:7
FNH:6
DA:13,157
DA:14,157
DA:15,157
DA:24,157
DA:25,157
DA:26,157
DA:28,157
DA:29,157
DA:30,157
DA:32,157
DA:33,157
DA:35,157
DA:37,157
DA:39,157
DA:41,157
DA:43,157
DA:45,157
DA:46,157
DA:47,157
DA:51,157
DA:52,157
DA:53,157
DA:57,0
DA:58,0
DA:59,0
DA:60,0
DA:68,2
DA:69,2
DA:70,2
DA:71,2
DA:72,2
BRF:0
BRH:0
LF:32
LH:28
end_of_record
SF:/home/matthew/develop/personal/karva/crates/karva_core/src/testing.rs
FN:11,_RNvNtCs4RrqI5pJN37_10karva_core7testing12setup_module
FN:13,_RNvNvNtCs4RrqI5pJN37_10karva_core7testing12setup_module5karva
FN:11,_RNvNtCs1eKvc9ZrgUW_10karva_core7testing12setup_module
FN:13,_RNvNvNtCs1eKvc9ZrgUW_10karva_core7testing12setup_module5karva
FNDA:1,_RNvNtCs4RrqI5pJN37_10karva_core7testing12setup_module
FNDA:1,_RNvNvNtCs4RrqI5pJN37_10karva_core7testing12setup_module5karva
FNDA:1,_RNvNtCs1eKvc9ZrgUW_10karva_core7testing12setup_module
FNDA:1,_RNvNvNtCs1eKvc9ZrgUW_10karva_core7testing12setup_module5karva
FNF:2
FNH:2
DA:11,2
DA:13,2
DA:14,2
DA:15,2
DA:16,2
DA:17,2
DA:18,2
BRF:0
BRH:0
LF:7
LH:7
end_of_record
SF:/home/matthew/develop/personal/karva/crates/karva_core/src/utils.rs
FN:23,_RNvNtCs4RrqI5pJN37_10karva_core5utils15add_to_sys_path
FN:65,_RNvNtCs4RrqI5pJN37_10karva_core5utils21restore_python_output
FN:15,_RNvNtCs4RrqI5pJN37_10karva_core5utils22current_python_version
FN:35,_RNvNtCs4RrqI5pJN37_10karva_core5utils22redirect_python_output
FN:155,_RNvNtCs4RrqI5pJN37_10karva_core5utils28function_definition_location
FN:131,_RINvNtCs4RrqI5pJN37_10karva_core5utils16cartesian_insertINtNtCsaGZDKDLuEaS_4pyo38instance2PyNtNtNtBX_5types3any5PyAnyENCINvMNtNtNtB4_9discovery6models8functionNtB1Y_12TestFunction7collectNCNvMNtNtB4_10collection9collectorNtB34_17TestCaseCollector21collect_test_function0E0EB4_
FN:131,_RINvNtCs4RrqI5pJN37_10karva_core5utils16cartesian_insertINtNtCsaGZDKDLuEaS_4pyo38instance2PyNtNtNtBX_5types3any5PyAnyENCNvMs2_NtNtB4_10extensions8fixturesNtB20_7Fixture4call0EB4_
FN:131,_RINvNtCs4RrqI5pJN37_10karva_core5utils16cartesian_insertINtNtCsaGZDKDLuEaS_4pyo38instance2PyNtNtNtBX_5types3any5PyAnyENCNvMs2_NtNtB4_10extensions8fixturesNtB20_7Fixture4calls_0EB4_
FN:99,_RINvNtCs4RrqI5pJN37_10karva_core5utils19iter_with_ancestorsNtNtNtNtB4_9discovery6models7package17DiscoveredPackageEB4_
FN:81,_RINvNtCs4RrqI5pJN37_10karva_core5utils6attachNCNvMNtB4_6runnerNtBM_18StandardTestRunner9test_impl0NtNtBM_10diagnostic13TestRunResultEB4_
FN:105,_RNCINvNtCs4RrqI5pJN37_10karva_core5utils19iter_with_ancestorsNtNtNtNtB6_9discovery6models7package17DiscoveredPackageE0B6_
FN:85,_RNCINvNtCs4RrqI5pJN37_10karva_core5utils6attachNCNvMNtB6_6runnerNtBO_18StandardTestRunner9test_impl0NtNtBO_10diagnostic13TestRunResultE0B6_
FN:16,_RNCNvNtCs4RrqI5pJN37_10karva_core5utils22current_python_version0B5_
FN:200,_RNvNtNtNtCs1eKvc9ZrgUW_10karva_core5utils5tests22cartesian_insert_testss_27test_cartesian_insert_basic
FN:245,_RNvNtNtNtCs1eKvc9ZrgUW_10karva_core5utils5tests22cartesian_insert_testss_36test_cartesian_insert_empty_existing
FN:268,_RNvNtNtNtCs1eKvc9ZrgUW_10karva_core5utils5tests22cartesian_insert_testss_36test_cartesian_insert_with_transform
FN:255,_RNvNtNtNtCs1eKvc9ZrgUW_10karva_core5utils5tests22cartesian_insert_testss_37test_cartesian_insert_empty_new_items
FN:228,_RNvNtNtNtCs1eKvc9ZrgUW_10karva_core5utils5tests22cartesian_insert_testss_37test_cartesian_insert_single_existing
FN:309,_RNvNtNtNtCs1eKvc9ZrgUW_10karva_core5utils5tests22cartesian_insert_testss_39test_cartesian_insert_error_propagation
FN:285,_RNvNtNtNtCs1eKvc9ZrgUW_10karva_core5utils5tests22cartesian_insert_testss_45test_cartesian_insert_preserves_original_maps
FN:210,_RNCNvNtNtNtCs1eKvc9ZrgUW_10karva_core5utils5tests22cartesian_insert_testss_27test_cartesian_insert_basic0B9_
FN:249,_RNCNvNtNtNtCs1eKvc9ZrgUW_10karva_core5utils5tests22cartesian_insert_testss_36test_cartesian_insert_empty_existing0B9_
FN:276,_RNCNvNtNtNtCs1eKvc9ZrgUW_10karva_core5utils5tests22cartesian_insert_testss_36test_cartesian_insert_with_transform0B9_
FN:262,_RNCNvNtNtNtCs1eKvc9ZrgUW_10karva_core5utils5tests22cartesian_insert_testss_37test_cartesian_insert_empty_new_items0B9_
FN:235,_RNCNvNtNtNtCs1eKvc9ZrgUW_10karva_core5utils5tests22cartesian_insert_testss_37test_cartesian_insert_single_existing0B9_
FN:316,_RNCNvNtNtNtCs1eKvc9ZrgUW_10karva_core5utils5tests22cartesian_insert_testss_39test_cartesian_insert_error_propagation0B9_
FN:296,_RNCNvNtNtNtCs1eKvc9ZrgUW_10karva_core5utils5tests22cartesian_insert_testss_45test_cartesian_insert_preserves_original_maps0B9_
FN:23,_RNvNtCs1eKvc9ZrgUW_10karva_core5utils15add_to_sys_path
FN:65,_RNvNtCs1eKvc9ZrgUW_10karva_core5utils21restore_python_output
FN:15,_RNvNtCs1eKvc9ZrgUW_10karva_core5utils22current_python_version
FN:35,_RNvNtCs1eKvc9ZrgUW_10karva_core5utils22redirect_python_output
FN:155,_RNvNtCs1eKvc9ZrgUW_10karva_core5utils28function_definition_location
FN:131,_RINvNtCs1eKvc9ZrgUW_10karva_core5utils16cartesian_insertINtNtCsaGZDKDLuEaS_4pyo38instance2PyNtNtNtBX_5types3any5PyAnyENCINvMNtNtNtB4_9discovery6models8functionNtB1Y_12TestFunction7collectNCNvMNtNtB4_10collection9collectorNtB34_17TestCaseCollector21collect_test_function0E0EB4_
FN:131,_RINvNtCs1eKvc9ZrgUW_10karva_core5utils16cartesian_insertINtNtCsaGZDKDLuEaS_4pyo38instance2PyNtNtNtBX_5types3any5PyAnyENCNvMs2_NtNtB4_10extensions8fixturesNtB20_7Fixture4call0EB4_
FN:131,_RINvNtCs1eKvc9ZrgUW_10karva_core5utils16cartesian_insertINtNtCsaGZDKDLuEaS_4pyo38instance2PyNtNtNtBX_5types3any5PyAnyENCNvMs2_NtNtB4_10extensions8fixturesNtB20_7Fixture4calls_0EB4_
FN:131,_RINvNtCs1eKvc9ZrgUW_10karva_core5utils16cartesian_insertReNCNvNtNtB2_5tests22cartesian_insert_testss_37test_cartesian_insert_single_existing0EB4_
FN:131,_RINvNtCs1eKvc9ZrgUW_10karva_core5utils16cartesian_insertlNCNvNtNtB2_5tests22cartesian_insert_testss_27test_cartesian_insert_basic0EB4_
FN:131,_RINvNtCs1eKvc9ZrgUW_10karva_core5utils16cartesian_insertlNCNvNtNtB2_5tests22cartesian_insert_testss_36test_cartesian_insert_empty_existing0EB4_
FN:131,_RINvNtCs1eKvc9ZrgUW_10karva_core5utils16cartesian_insertlNCNvNtNtB2_5tests22cartesian_insert_testss_36test_cartesian_insert_with_transform0EB4_
FN:131,_RINvNtCs1eKvc9ZrgUW_10karva_core5utils16cartesian_insertlNCNvNtNtB2_5tests22cartesian_insert_testss_37test_cartesian_insert_empty_new_items0EB4_
FN:131,_RINvNtCs1eKvc9ZrgUW_10karva_core5utils16cartesian_insertlNCNvNtNtB2_5tests22cartesian_insert_testss_39test_cartesian_insert_error_propagation0EB4_
FN:131,_RINvNtCs1eKvc9ZrgUW_10karva_core5utils16cartesian_insertlNCNvNtNtB2_5tests22cartesian_insert_testss_45test_cartesian_insert_preserves_original_maps0EB4_
FN:99,_RINvNtCs1eKvc9ZrgUW_10karva_core5utils19iter_with_ancestorsNtNtNtNtB4_9discovery6models7package17DiscoveredPackageEB4_
FN:99,_RINvNtCs1eKvc9ZrgUW_10karva_core5utils19iter_with_ancestorseEB4_
FN:81,_RINvNtCs1eKvc9ZrgUW_10karva_core5utils6attachNCNvMNtB4_6runnerNtBM_18StandardTestRunner9test_impl0NtNtBM_10diagnostic13TestRunResultEB4_
FN:105,_RNCINvNtCs1eKvc9ZrgUW_10karva_core5utils19iter_with_ancestorsNtNtNtNtB6_9discovery6models7package17DiscoveredPackageE0B6_
FN:105,_RNCINvNtCs1eKvc9ZrgUW_10karva_core5utils19iter_with_ancestorseE0B6_
FN:85,_RNCINvNtCs1eKvc9ZrgUW_10karva_core5utils6attachNCNvMNtB6_6runnerNtBO_18StandardTestRunner9test_impl0NtNtBO_10diagnostic13TestRunResultE0B6_
FN:16,_RNCNvNtCs1eKvc9ZrgUW_10karva_core5utils22current_python_version0B5_
FN:184,_RNvNtNtNtCs1eKvc9ZrgUW_10karva_core5utils5tests11utils_testss_24test_iter_with_ancestors
FN:174,_RNvNtNtNtCs1eKvc9ZrgUW_10karva_core5utils5tests20python_version_testss_27test_current_python_version
FNDA:155,_RNvNtCs4RrqI5pJN37_10karva_core5utils15add_to_sys_path
FNDA:155,_RNvNtCs4RrqI5pJN37_10karva_core5utils21restore_python_output
FNDA:0,_RNvNtCs4RrqI5pJN37_10karva_core5utils22current_python_version
FNDA:155,_RNvNtCs4RrqI5pJN37_10karva_core5utils22redirect_python_output
FNDA:148,_RNvNtCs4RrqI5pJN37_10karva_core5utils28function_definition_location
FNDA:113,_RINvNtCs4RrqI5pJN37_10karva_core5utils16cartesian_insertINtNtCsaGZDKDLuEaS_4pyo38instance2PyNtNtNtBX_5types3any5PyAnyENCINvMNtNtNtB4_9discovery6models8functionNtB1Y_12TestFunction7collectNCNvMNtNtB4_10collection9collectorNtB34_17TestCaseCollector21collect_test_function0E0EB4_
FNDA:28,_RINvNtCs4RrqI5pJN37_10karva_core5utils16cartesian_insertINtNtCsaGZDKDLuEaS_4pyo38instance2PyNtNtNtBX_5types3any5PyAnyENCNvMs2_NtNtB4_10extensions8fixturesNtB20_7Fixture4call0EB4_
FNDA:21,_RINvNtCs4RrqI5pJN37_10karva_core5utils16cartesian_insertINtNtCsaGZDKDLuEaS_4pyo38instance2PyNtNtNtBX_5types3any5PyAnyENCNvMs2_NtNtB4_10extensions8fixturesNtB20_7Fixture4calls_0EB4_
FNDA:728,_RINvNtCs4RrqI5pJN37_10karva_core5utils19iter_with_ancestorsNtNtNtNtB4_9discovery6models7package17DiscoveredPackageEB4_
FNDA:155,_RINvNtCs4RrqI5pJN37_10karva_core5utils6attachNCNvMNtB4_6runnerNtBM_18StandardTestRunner9test_impl0NtNtBM_10diagnostic13TestRunResultEB4_
FNDA:1747,_RNCINvNtCs4RrqI5pJN37_10karva_core5utils19iter_with_ancestorsNtNtNtNtB6_9discovery6models7package17DiscoveredPackageE0B6_
FNDA:155,_RNCINvNtCs4RrqI5pJN37_10karva_core5utils6attachNCNvMNtB6_6runnerNtBO_18StandardTestRunner9test_impl0NtNtBO_10diagnostic13TestRunResultE0B6_
FNDA:0,_RNCNvNtCs4RrqI5pJN37_10karva_core5utils22current_python_version0B5_
FNDA:1,_RNvNtNtNtCs1eKvc9ZrgUW_10karva_core5utils5tests22cartesian_insert_testss_27test_cartesian_insert_basic
FNDA:1,_RNvNtNtNtCs1eKvc9ZrgUW_10karva_core5utils5tests22cartesian_insert_testss_36test_cartesian_insert_empty_existing
FNDA:1,_RNvNtNtNtCs1eKvc9ZrgUW_10karva_core5utils5tests22cartesian_insert_testss_36test_cartesian_insert_with_transform
FNDA:1,_RNvNtNtNtCs1eKvc9ZrgUW_10karva_core5utils5tests22cartesian_insert_testss_37test_cartesian_insert_empty_new_items
FNDA:1,_RNvNtNtNtCs1eKvc9ZrgUW_10karva_core5utils5tests22cartesian_insert_testss_37test_cartesian_insert_single_existing
FNDA:1,_RNvNtNtNtCs1eKvc9ZrgUW_10karva_core5utils5tests22cartesian_insert_testss_39test_cartesian_insert_error_propagation
FNDA:1,_RNvNtNtNtCs1eKvc9ZrgUW_10karva_core5utils5tests22cartesian_insert_testss_45test_cartesian_insert_preserves_original_maps
FNDA:4,_RNCNvNtNtNtCs1eKvc9ZrgUW_10karva_core5utils5tests22cartesian_insert_testss_27test_cartesian_insert_basic0B9_
FNDA:0,_RNCNvNtNtNtCs1eKvc9ZrgUW_10karva_core5utils5tests22cartesian_insert_testss_36test_cartesian_insert_empty_existing0B9_
FNDA:3,_RNCNvNtNtNtCs1eKvc9ZrgUW_10karva_core5utils5tests22cartesian_insert_testss_36test_cartesian_insert_with_transform0B9_
FNDA:0,_RNCNvNtNtNtCs1eKvc9ZrgUW_10karva_core5utils5tests22cartesian_insert_testss_37test_cartesian_insert_empty_new_items0B9_
FNDA:3,_RNCNvNtNtNtCs1eKvc9ZrgUW_10karva_core5utils5tests22cartesian_insert_testss_37test_cartesian_insert_single_existing0B9_
FNDA:2,_RNCNvNtNtNtCs1eKvc9ZrgUW_10karva_core5utils5tests22cartesian_insert_testss_39test_cartesian_insert_error_propagation0B9_
FNDA:2,_RNCNvNtNtNtCs1eKvc9ZrgUW_10karva_core5utils5tests22cartesian_insert_testss_45test_cartesian_insert_preserves_original_maps0B9_
FNDA:53,_RNvNtCs1eKvc9ZrgUW_10karva_core5utils15add_to_sys_path
FNDA:2,_RNvNtCs1eKvc9ZrgUW_10karva_core5utils21restore_python_output
FNDA:1,_RNvNtCs1eKvc9ZrgUW_10karva_core5utils22current_python_version
FNDA:2,_RNvNtCs1eKvc9ZrgUW_10karva_core5utils22redirect_python_output
FNDA:49,_RNvNtCs1eKvc9ZrgUW_10karva_core5utils28function_definition_location
FNDA:2,_RINvNtCs1eKvc9ZrgUW_10karva_core5utils16cartesian_insertINtNtCsaGZDKDLuEaS_4pyo38instance2PyNtNtNtBX_5types3any5PyAnyENCINvMNtNtNtB4_9discovery6models8functionNtB1Y_12TestFunction7collectNCNvMNtNtB4_10collection9collectorNtB34_17TestCaseCollector21collect_test_function0E0EB4_
FNDA:0,_RINvNtCs1eKvc9ZrgUW_10karva_core5utils16cartesian_insertINtNtCsaGZDKDLuEaS_4pyo38instance2PyNtNtNtBX_5types3any5PyAnyENCNvMs2_NtNtB4_10extensions8fixturesNtB20_7Fixture4call0EB4_
FNDA:31,_RINvNtCs1eKvc9ZrgUW_10karva_core5utils16cartesian_insertINtNtCsaGZDKDLuEaS_4pyo38instance2PyNtNtNtBX_5types3any5PyAnyENCNvMs2_NtNtB4_10extensions8fixturesNtB20_7Fixture4calls_0EB4_
FNDA:1,_RINvNtCs1eKvc9ZrgUW_10karva_core5utils16cartesian_insertReNCNvNtNtB2_5tests22cartesian_insert_testss_37test_cartesian_insert_single_existing0EB4_
FNDA:1,_RINvNtCs1eKvc9ZrgUW_10karva_core5utils16cartesian_insertlNCNvNtNtB2_5tests22cartesian_insert_testss_27test_cartesian_insert_basic0EB4_
FNDA:1,_RINvNtCs1eKvc9ZrgUW_10karva_core5utils16cartesian_insertlNCNvNtNtB2_5tests22cartesian_insert_testss_36test_cartesian_insert_empty_existing0EB4_
FNDA:1,_RINvNtCs1eKvc9ZrgUW_10karva_core5utils16cartesian_insertlNCNvNtNtB2_5tests22cartesian_insert_testss_36test_cartesian_insert_with_transform0EB4_
FNDA:1,_RINvNtCs1eKvc9ZrgUW_10karva_core5utils16cartesian_insertlNCNvNtNtB2_5tests22cartesian_insert_testss_37test_cartesian_insert_empty_new_items0EB4_
FNDA:1,_RINvNtCs1eKvc9ZrgUW_10karva_core5utils16cartesian_insertlNCNvNtNtB2_5tests22cartesian_insert_testss_39test_cartesian_insert_error_propagation0EB4_
FNDA:1,_RINvNtCs1eKvc9ZrgUW_10karva_core5utils16cartesian_insertlNCNvNtNtB2_5tests22cartesian_insert_testss_45test_cartesian_insert_preserves_original_maps0EB4_
FNDA:24,_RINvNtCs1eKvc9ZrgUW_10karva_core5utils19iter_with_ancestorsNtNtNtNtB4_9discovery6models7package17DiscoveredPackageEB4_
FNDA:1,_RINvNtCs1eKvc9ZrgUW_10karva_core5utils19iter_with_ancestorseEB4_
FNDA:2,_RINvNtCs1eKvc9ZrgUW_10karva_core5utils6attachNCNvMNtB4_6runnerNtBM_18StandardTestRunner9test_impl0NtNtBM_10diagnostic13TestRunResultEB4_
FNDA:34,_RNCINvNtCs1eKvc9ZrgUW_10karva_core5utils19iter_with_ancestorsNtNtNtNtB6_9discovery6models7package17DiscoveredPackageE0B6_
FNDA:4,_RNCINvNtCs1eKvc9ZrgUW_10karva_core5utils19iter_with_ancestorseE0B6_
FNDA:2,_RNCINvNtCs1eKvc9ZrgUW_10karva_core5utils6attachNCNvMNtB6_6runnerNtBO_18StandardTestRunner9test_impl0NtNtBO_10diagnostic13TestRunResultE0B6_
FNDA:1,_RNCNvNtCs1eKvc9ZrgUW_10karva_core5utils22current_python_version0B5_
FNDA:1,_RNvNtNtNtCs1eKvc9ZrgUW_10karva_core5utils5tests11utils_testss_24test_iter_with_ancestors
FNDA:1,_RNvNtNtNtCs1eKvc9ZrgUW_10karva_core5utils5tests20python_version_testss_27test_current_python_version
FNF:27
FNH:25
DA:15,1
DA:16,1
DA:17,1
DA:18,1
DA:19,1
DA:20,1
DA:23,208
DA:24,208
DA:25,208
DA:26,208
DA:27,208
DA:28,208
DA:35,157
DA:36,157
DA:37,157
DA:38,157
DA:39,157
DA:40,0
DA:42,157
DA:43,157
DA:44,157
DA:45,157
DA:47,157
DA:48,157
DA:49,157
DA:51,314
DA:52,314
DA:55,157
DA:57,157
DA:59,157
DA:65,157
DA:66,157
DA:67,157
DA:69,314
DA:70,314
DA:71,314
DA:72,314
DA:73,314
DA:76,157
DA:77,157
DA:78,157
DA:81,157
DA:82,157
DA:83,157
DA:85,157
DA:86,157
DA:87,157
DA:88,157
DA:89,157
DA:90,157
DA:91,157
DA:92,157
DA:93,157
DA:99,753
DA:100,753
DA:101,753
DA:102,753
DA:103,753
DA:105,1785
DA:106,1785
DA:107,1049
DA:108,1049
DA:109,1049
DA:110,1049
DA:112,736
DA:114,1785
DA:115,753
DA:131,202
DA:132,202
DA:133,202
DA:134,202
DA:135,202
DA:136,202
DA:137,202
DA:138,202
DA:139,202
DA:141,202
DA:143,406
DA:144,491
DA:145,287
DA:146,287
DA:147,286
DA:148,286
DA:152,201
DA:153,202
DA:155,197
DA:156,197
DA:157,197
DA:158,197
DA:159,197
DA:160,197
DA:161,197
DA:162,197
DA:163,197
DA:164,197
DA:174,1
DA:175,1
DA:176,1
DA:177,1
DA:184,1
DA:185,1
DA:186,1
DA:187,1
DA:188,1
DA:189,1
DA:191,1
DA:192,1
DA:193,1
DA:200,1
DA:201,1
DA:202,1
DA:204,1
DA:205,1
DA:207,1
DA:208,1
DA:210,4
DA:212,1
DA:214,1
DA:215,1
DA:217,1
DA:218,1
DA:220,1
DA:221,1
DA:223,1
DA:224,1
DA:225,1
DA:228,1
DA:229,1
DA:230,1
DA:232,1
DA:233,1
DA:235,3
DA:237,1
DA:238,1
DA:239,1
DA:240,1
DA:241,1
DA:242,1
DA:245,1
DA:246,1
DA:247,1
DA:249,1
DA:251,1
DA:252,1
DA:255,1
DA:256,1
DA:257,1
DA:259,1
DA:260,1
DA:262,1
DA:264,1
DA:265,1
DA:268,1
DA:269,1
DA:270,1
DA:272,1
DA:273,1
DA:275,1
DA:276,3
DA:278,1
DA:279,1
DA:280,1
DA:281,1
DA:282,1
DA:285,1
DA:286,1
DA:287,1
DA:288,1
DA:290,1
DA:291,1
DA:293,1
DA:294,1
DA:296,2
DA:298,1
DA:300,1
DA:301,1
DA:302,1
DA:304,1
DA:305,1
DA:306,1
DA:309,1
DA:310,1
DA:311,1
DA:313,1
DA:314,1
DA:316,2
DA:317,2
DA:318,1
DA:320,1
DA:322,2
DA:324,1
DA:325,1
BRF:0
BRH:0
LF:202
LH:199
end_of_record
SF:/home/matthew/develop/personal/karva/crates/karva_project/src/path/test_path.rs
FN:52,_RNvMNtNtCseKlgFTNzZWo_13karva_project4path9test_pathNtB2_8TestPath3new
FN:97,_RNvMNtNtCseKlgFTNzZWo_13karva_project4path9test_pathNtB2_8TestPath4path
FN:113,_RNvMs_NtNtCseKlgFTNzZWo_13karva_project4path9test_pathNtB4_13TestPathError4path
FN:7,_RNvNtNtCseKlgFTNzZWo_13karva_project4path9test_path22try_convert_to_py_path
FN:124,_RNvXs0_NtNtCseKlgFTNzZWo_13karva_project4path9test_pathNtB5_13TestPathErrorNtNtCs3vi8RLxhvdw_4core3fmt7Display3fmt
FN:166,_RNvNtNtNtCscRlhGkMwX2w_13karva_project4path9test_path5testss_19test_directory_path
FN:207,_RNvNtNtNtCscRlhGkMwX2w_13karva_project4path9test_path5testss_25test_wrong_file_extension
FN:236,_RNvNtNtNtCscRlhGkMwX2w_13karva_project4path9test_path5testss_27test_function_specification
FN:145,_RNvNtNtNtCscRlhGkMwX2w_13karva_project4path9test_path5testss_27test_python_file_exact_path
FN:175,_RNvNtNtNtCscRlhGkMwX2w_13karva_project4path9test_path5testss_30test_file_not_found_exact_path
FN:193,_RNvNtNtNtCscRlhGkMwX2w_13karva_project4path9test_path5testss_31test_file_not_found_dotted_path
FN:155,_RNvNtNtNtCscRlhGkMwX2w_13karva_project4path9test_path5testss_31test_python_file_auto_extension
FN:199,_RNvNtNtNtCscRlhGkMwX2w_13karva_project4path9test_path5testss_32test_invalid_path_with_extension
FN:304,_RNvNtNtNtCscRlhGkMwX2w_13karva_project4path9test_path5testss_32test_try_convert_to_py_path_file
FN:184,_RNvNtNtNtCscRlhGkMwX2w_13karva_project4path9test_path5testss_34test_file_not_found_auto_extension
FN:330,_RNvNtNtNtCscRlhGkMwX2w_13karva_project4path9test_path5testss_37test_try_convert_to_py_path_directory
FN:343,_RNvNtNtNtCscRlhGkMwX2w_13karva_project4path9test_path5testss_37test_try_convert_to_py_path_not_found
FN:225,_RNvNtNtNtCscRlhGkMwX2w_13karva_project4path9test_path5testss_39test_file_and_auto_extension_both_exist
FN:317,_RNvNtNtNtCscRlhGkMwX2w_13karva_project4path9test_path5testss_40test_try_convert_to_py_path_file_slashes
FN:293,_RNvNtNtNtCscRlhGkMwX2w_13karva_project4path9test_path5testss_43test_function_specification_wrong_extension
FN:282,_RNvNtNtNtCscRlhGkMwX2w_13karva_project4path9test_path5testss_44test_function_specification_nonexistent_file
FN:271,_RNvNtNtNtCscRlhGkMwX2w_13karva_project4path9test_path5testss_47test_function_specification_empty_function_name
FN:256,_RNvNtNtNtCscRlhGkMwX2w_13karva_project4path9test_path5testss_47test_function_specification_with_auto_extension
FN:216,_RNvNtNtNtCscRlhGkMwX2w_13karva_project4path9test_path5testss_55test_path_that_exists_but_is_neither_file_nor_directory
FN:97,_RNvMNtNtCscRlhGkMwX2w_13karva_project4path9test_pathNtB2_8TestPath4path
FN:113,_RNvMs_NtNtCscRlhGkMwX2w_13karva_project4path9test_pathNtB4_13TestPathError4path
FN:124,_RNvXs0_NtNtCscRlhGkMwX2w_13karva_project4path9test_pathNtB5_13TestPathErrorNtNtCs3vi8RLxhvdw_4core3fmt7Display3fmt
FN:52,_RNvMNtNtCscRlhGkMwX2w_13karva_project4path9test_pathNtB2_8TestPath3new
FN:7,_RNvNtNtCscRlhGkMwX2w_13karva_project4path9test_path22try_convert_to_py_path
FNDA:217,_RNvMNtNtCseKlgFTNzZWo_13karva_project4path9test_pathNtB2_8TestPath3new
FNDA:216,_RNvMNtNtCseKlgFTNzZWo_13karva_project4path9test_pathNtB2_8TestPath4path
FNDA:0,_RNvMs_NtNtCseKlgFTNzZWo_13karva_project4path9test_pathNtB4_13TestPathError4path
FNDA:217,_RNvNtNtCseKlgFTNzZWo_13karva_project4path9test_path22try_convert_to_py_path
FNDA:0,_RNvXs0_NtNtCseKlgFTNzZWo_13karva_project4path9test_pathNtB5_13TestPathErrorNtNtCs3vi8RLxhvdw_4core3fmt7Display3fmt
FNDA:1,_RNvNtNtNtCscRlhGkMwX2w_13karva_project4path9test_path5testss_19test_directory_path
FNDA:1,_RNvNtNtNtCscRlhGkMwX2w_13karva_project4path9test_path5testss_25test_wrong_file_extension
FNDA:1,_RNvNtNtNtCscRlhGkMwX2w_13karva_project4path9test_path5testss_27test_function_specification
FNDA:1,_RNvNtNtNtCscRlhGkMwX2w_13karva_project4path9test_path5testss_27test_python_file_exact_path
FNDA:1,_RNvNtNtNtCscRlhGkMwX2w_13karva_project4path9test_path5testss_30test_file_not_found_exact_path
FNDA:1,_RNvNtNtNtCscRlhGkMwX2w_13karva_project4path9test_path5testss_31test_file_not_found_dotted_path
FNDA:1,_RNvNtNtNtCscRlhGkMwX2w_13karva_project4path9test_path5testss_31test_python_file_auto_extension
FNDA:1,_RNvNtNtNtCscRlhGkMwX2w_13karva_project4path9test_path5testss_32test_invalid_path_with_extension
FNDA:1,_RNvNtNtNtCscRlhGkMwX2w_13karva_project4path9test_path5testss_32test_try_convert_to_py_path_file
FNDA:1,_RNvNtNtNtCscRlhGkMwX2w_13karva_project4path9test_path5testss_34test_file_not_found_auto_extension
FNDA:1,_RNvNtNtNtCscRlhGkMwX2w_13karva_project4path9test_path5testss_37test_try_convert_to_py_path_directory
FNDA:1,_RNvNtNtNtCscRlhGkMwX2w_13karva_project4path9test_path5testss_37test_try_convert_to_py_path_not_found
FNDA:1,_RNvNtNtNtCscRlhGkMwX2w_13karva_project4path9test_path5testss_39test_file_and_auto_extension_both_exist
FNDA:1,_RNvNtNtNtCscRlhGkMwX2w_13karva_project4path9test_path5testss_40test_try_convert_to_py_path_file_slashes
FNDA:1,_RNvNtNtNtCscRlhGkMwX2w_13karva_project4path9test_path5testss_43test_function_specification_wrong_extension
FNDA:1,_RNvNtNtNtCscRlhGkMwX2w_13karva_project4path9test_path5testss_44test_function_specification_nonexistent_file
FNDA:1,_RNvNtNtNtCscRlhGkMwX2w_13karva_project4path9test_path5testss_47test_function_specification_empty_function_name
FNDA:1,_RNvNtNtNtCscRlhGkMwX2w_13karva_project4path9test_path5testss_47test_function_specification_with_auto_extension
FNDA:1,_RNvNtNtNtCscRlhGkMwX2w_13karva_project4path9test_path5testss_55test_path_that_exists_but_is_neither_file_nor_directory
FNDA:0,_RNvMNtNtCscRlhGkMwX2w_13karva_project4path9test_pathNtB2_8TestPath4path
FNDA:0,_RNvMs_NtNtCscRlhGkMwX2w_13karva_project4path9test_pathNtB4_13TestPathError4path
FNDA:0,_RNvXs0_NtNtCscRlhGkMwX2w_13karva_project4path9test_pathNtB5_13TestPathErrorNtNtCs3vi8RLxhvdw_4core3fmt7Display3fmt
FNDA:15,_RNvMNtNtCscRlhGkMwX2w_13karva_project4path9test_pathNtB2_8TestPath3new
FNDA:18,_RNvNtNtCscRlhGkMwX2w_13karva_project4path9test_path22try_convert_to_py_path
FNF:24
FNH:22
DA:7,235
DA:8,235
DA:9,224
DA:10,11
DA:12,11
DA:13,11
DA:14,4
DA:15,7
DA:17,7
DA:18,7
DA:19,0
DA:20,7
DA:22,7
DA:23,235
DA:52,232
DA:53,232
DA:54,8
DA:55,8
DA:57,8
DA:58,1
DA:59,1
DA:60,1
DA:61,7
DA:63,7
DA:64,7
DA:66,6
DA:67,6
DA:68,5
DA:69,5
DA:70,5
DA:71,5
DA:73,1
DA:76,0
DA:80,224
DA:81,224
DA:83,219
DA:84,25
DA:85,22
DA:87,3
DA:89,194
DA:90,194
DA:92,0
DA:95,232
DA:97,216
DA:98,216
DA:99,216
DA:101,216
DA:113,0
DA:114,0
DA:115,0
DA:116,0
DA:117,0
DA:118,0
DA:120,0
DA:124,0
DA:125,0
DA:126,0
DA:127,0
DA:128,0
DA:130,0
DA:131,0
DA:132,0
DA:135,0
DA:145,1
DA:146,1
DA:147,1
DA:149,1
DA:151,1
DA:152,1
DA:155,1
DA:156,1
DA:157,1
DA:158,1
DA:160,1
DA:162,1
DA:163,1
DA:166,1
DA:167,1
DA:168,1
DA:170,1
DA:171,1
DA:172,1
DA:175,1
DA:176,1
DA:177,1
DA:179,1
DA:180,1
DA:181,1
DA:184,1
DA:185,1
DA:186,1
DA:188,1
DA:189,1
DA:190,1
DA:193,1
DA:194,1
DA:195,1
DA:196,1
DA:199,1
DA:200,1
DA:201,1
DA:202,1
DA:203,1
DA:204,1
DA:207,1
DA:208,1
DA:209,1
DA:211,1
DA:212,1
DA:213,1
DA:216,1
DA:217,1
DA:218,1
DA:220,1
DA:221,1
DA:222,1
DA:225,1
DA:226,1
DA:227,1
DA:228,1
DA:229,1
DA:231,1
DA:232,1
DA:233,1
DA:236,1
DA:237,1
DA:238,1
DA:240,1
DA:241,1
DA:244,1
DA:245,1
DA:246,1
DA:248,1
DA:249,1
DA:251,0
DA:253,1
DA:256,1
DA:257,1
DA:258,1
DA:259,1
DA:261,1
DA:262,1
DA:264,1
DA:265,1
DA:266,1
DA:267,0
DA:268,1
DA:271,1
DA:272,1
DA:273,1
DA:275,1
DA:276,1
DA:278,1
DA:279,1
DA:282,1
DA:283,1
DA:284,1
DA:286,1
DA:287,1
DA:289,1
DA:290,1
DA:293,1
DA:294,1
DA:295,1
DA:297,1
DA:298,1
DA:300,1
DA:301,1
DA:304,1
DA:305,1
DA:306,1
DA:308,1
DA:309,1
DA:310,1
DA:312,0
DA:314,1
DA:317,1
DA:318,1
DA:319,1
DA:321,1
DA:322,1
DA:323,1
DA:325,0
DA:327,1
DA:330,1
DA:331,1
DA:332,1
DA:334,1
DA:335,1
DA:336,1
DA:338,0
DA:340,1
DA:343,1
DA:344,1
DA:345,1
DA:346,1
DA:347,1
BRF:0
BRH:0
LF:197
LH:173
end_of_record
SF:/home/matthew/develop/personal/karva/crates/karva_project/src/path/utils.rs
FN:3,_RINvNtNtCseKlgFTNzZWo_13karva_project4path5utils8absoluteppEB6_
FN:3,_RINvNtNtCscRlhGkMwX2w_13karva_project4path5utils8absoluteppEB6_
FNDA:0,_RINvNtNtCseKlgFTNzZWo_13karva_project4path5utils8absoluteppEB6_
FNDA:0,_RINvNtNtCscRlhGkMwX2w_13karva_project4path5utils8absoluteppEB6_
FNF:1
FNH:0
DA:3,0
DA:4,0
DA:5,0
DA:7,0
DA:8,0
DA:9,0
DA:11,0
DA:12,0
DA:14,0
DA:17,0
DA:18,0
DA:19,0
DA:20,0
DA:21,0
DA:22,0
DA:23,0
DA:24,0
DA:25,0
DA:26,0
DA:27,0
DA:28,0
DA:29,0
DA:33,0
DA:34,0
BRF:0
BRH:0
LF:24
LH:0
end_of_record
SF:/home/matthew/develop/personal/karva/crates/karva_project/src/project.rs
FN:19,_RNvMNtCseKlgFTNzZWo_13karva_project7projectNtB2_15ProjectMetadata14python_version
FN:15,_RNvMNtCseKlgFTNzZWo_13karva_project7projectNtB2_15ProjectMetadata3new
FN:131,_RNvMs1_NtCseKlgFTNzZWo_13karva_project7projectNtB5_7Project10test_paths
FN:118,_RNvMs1_NtCseKlgFTNzZWo_13karva_project7projectNtB5_7Project12with_options
FN:108,_RNvMs1_NtCseKlgFTNzZWo_13karva_project7projectNtB5_7Project13with_metadata
FN:127,_RNvMs1_NtCseKlgFTNzZWo_13karva_project7projectNtB5_7Project3cwd
FN:98,_RNvMs1_NtCseKlgFTNzZWo_13karva_project7projectNtB5_7Project3new
FN:123,_RNvMs1_NtCseKlgFTNzZWo_13karva_project7projectNtB5_7Project7options
FN:113,_RNvMs1_NtCseKlgFTNzZWo_13karva_project7projectNtB5_7Project8metadata
FN:58,_RNvMs_NtCseKlgFTNzZWo_13karva_project7projectNtB4_14ProjectOptions11show_output
FN:50,_RNvMs_NtCseKlgFTNzZWo_13karva_project7projectNtB4_14ProjectOptions11test_prefix
FN:71,_RNvMs_NtCseKlgFTNzZWo_13karva_project7projectNtB4_14ProjectOptions14with_fail_fast
FN:34,_RNvMs_NtCseKlgFTNzZWo_13karva_project7projectNtB4_14ProjectOptions3new
FN:66,_RNvMs_NtCseKlgFTNzZWo_13karva_project7projectNtB4_14ProjectOptions9fail_fast
FN:62,_RNvMs_NtCseKlgFTNzZWo_13karva_project7projectNtB4_14ProjectOptions9no_ignore
FN:54,_RNvMs_NtCseKlgFTNzZWo_13karva_project7projectNtB4_14ProjectOptions9verbosity
FN:78,_RNvXs0_NtCseKlgFTNzZWo_13karva_project7projectNtB5_14ProjectOptionsNtNtCs3vi8RLxhvdw_4core7default7Default7default
FN:132,_RNCNvMs1_NtCseKlgFTNzZWo_13karva_project7projectNtB7_7Project10test_paths0B9_
FN:101,_RNCNvMs1_NtCseKlgFTNzZWo_13karva_project7projectNtB7_7Project3new0B9_
FN:132,_RNCNvMs1_NtCscRlhGkMwX2w_13karva_project7projectNtB7_7Project10test_paths0B9_
FN:101,_RNCNvMs1_NtCscRlhGkMwX2w_13karva_project7projectNtB7_7Project3new0B9_
FN:19,_RNvMNtCscRlhGkMwX2w_13karva_project7projectNtB2_15ProjectMetadata14python_version
FN:15,_RNvMNtCscRlhGkMwX2w_13karva_project7projectNtB2_15ProjectMetadata3new
FN:131,_RNvMs1_NtCscRlhGkMwX2w_13karva_project7projectNtB5_7Project10test_paths
FN:118,_RNvMs1_NtCscRlhGkMwX2w_13karva_project7projectNtB5_7Project12with_options
FN:108,_RNvMs1_NtCscRlhGkMwX2w_13karva_project7projectNtB5_7Project13with_metadata
FN:127,_RNvMs1_NtCscRlhGkMwX2w_13karva_project7projectNtB5_7Project3cwd
FN:98,_RNvMs1_NtCscRlhGkMwX2w_13karva_project7projectNtB5_7Project3new
FN:123,_RNvMs1_NtCscRlhGkMwX2w_13karva_project7projectNtB5_7Project7options
FN:113,_RNvMs1_NtCscRlhGkMwX2w_13karva_project7projectNtB5_7Project8metadata
FN:58,_RNvMs_NtCscRlhGkMwX2w_13karva_project7projectNtB4_14ProjectOptions11show_output
FN:50,_RNvMs_NtCscRlhGkMwX2w_13karva_project7projectNtB4_14ProjectOptions11test_prefix
FN:71,_RNvMs_NtCscRlhGkMwX2w_13karva_project7projectNtB4_14ProjectOptions14with_fail_fast
FN:34,_RNvMs_NtCscRlhGkMwX2w_13karva_project7projectNtB4_14ProjectOptions3new
FN:66,_RNvMs_NtCscRlhGkMwX2w_13karva_project7projectNtB4_14ProjectOptions9fail_fast
FN:62,_RNvMs_NtCscRlhGkMwX2w_13karva_project7projectNtB4_14ProjectOptions9no_ignore
FN:54,_RNvMs_NtCscRlhGkMwX2w_13karva_project7projectNtB4_14ProjectOptions9verbosity
FN:78,_RNvXs0_NtCscRlhGkMwX2w_13karva_project7projectNtB5_14ProjectOptionsNtNtCs3vi8RLxhvdw_4core7default7Default7default
FNDA:302,_RNvMNtCseKlgFTNzZWo_13karva_project7projectNtB2_15ProjectMetadata14python_version
FNDA:0,_RNvMNtCseKlgFTNzZWo_13karva_project7projectNtB2_15ProjectMetadata3new
FNDA:208,_RNvMs1_NtCseKlgFTNzZWo_13karva_project7projectNtB5_7Project10test_paths
FNDA:2,_RNvMs1_NtCseKlgFTNzZWo_13karva_project7projectNtB5_7Project12with_options
FNDA:0,_RNvMs1_NtCseKlgFTNzZWo_13karva_project7projectNtB5_7Project13with_metadata
FNDA:992,_RNvMs1_NtCseKlgFTNzZWo_13karva_project7projectNtB5_7Project3cwd
FNDA:208,_RNvMs1_NtCseKlgFTNzZWo_13karva_project7projectNtB5_7Project3new
FNDA:1672,_RNvMs1_NtCseKlgFTNzZWo_13karva_project7projectNtB5_7Project7options
FNDA:302,_RNvMs1_NtCseKlgFTNzZWo_13karva_project7projectNtB5_7Project8metadata
FNDA:157,_RNvMs_NtCseKlgFTNzZWo_13karva_project7projectNtB4_14ProjectOptions11show_output
FNDA:297,_RNvMs_NtCseKlgFTNzZWo_13karva_project7projectNtB4_14ProjectOptions11test_prefix
FNDA:1,_RNvMs_NtCseKlgFTNzZWo_13karva_project7projectNtB4_14ProjectOptions14with_fail_fast
FNDA:1,_RNvMs_NtCseKlgFTNzZWo_13karva_project7projectNtB4_14ProjectOptions3new
FNDA:610,_RNvMs_NtCseKlgFTNzZWo_13karva_project7projectNtB4_14ProjectOptions9fail_fast
FNDA:608,_RNvMs_NtCseKlgFTNzZWo_13karva_project7projectNtB4_14ProjectOptions9no_ignore
FNDA:0,_RNvMs_NtCseKlgFTNzZWo_13karva_project7projectNtB4_14ProjectOptions9verbosity
FNDA:209,_RNvXs0_NtCseKlgFTNzZWo_13karva_project7projectNtB5_14ProjectOptionsNtNtCs3vi8RLxhvdw_4core7default7Default7default
FNDA:217,_RNCNvMs1_NtCseKlgFTNzZWo_13karva_project7projectNtB7_7Project10test_paths0B9_
FNDA:217,_RNCNvMs1_NtCseKlgFTNzZWo_13karva_project7projectNtB7_7Project3new0B9_
FNDA:0,_RNCNvMs1_NtCscRlhGkMwX2w_13karva_project7projectNtB7_7Project10test_paths0B9_
FNDA:0,_RNCNvMs1_NtCscRlhGkMwX2w_13karva_project7projectNtB7_7Project3new0B9_
FNDA:0,_RNvMNtCscRlhGkMwX2w_13karva_project7projectNtB2_15ProjectMetadata14python_version
FNDA:0,_RNvMNtCscRlhGkMwX2w_13karva_project7projectNtB2_15ProjectMetadata3new
FNDA:0,_RNvMs1_NtCscRlhGkMwX2w_13karva_project7projectNtB5_7Project10test_paths
FNDA:0,_RNvMs1_NtCscRlhGkMwX2w_13karva_project7projectNtB5_7Project12with_options
FNDA:0,_RNvMs1_NtCscRlhGkMwX2w_13karva_project7projectNtB5_7Project13with_metadata
FNDA:0,_RNvMs1_NtCscRlhGkMwX2w_13karva_project7projectNtB5_7Project3cwd
FNDA:0,_RNvMs1_NtCscRlhGkMwX2w_13karva_project7projectNtB5_7Project3new
FNDA:0,_RNvMs1_NtCscRlhGkMwX2w_13karva_project7projectNtB5_7Project7options
FNDA:0,_RNvMs1_NtCscRlhGkMwX2w_13karva_project7projectNtB5_7Project8metadata
FNDA:0,_RNvMs_NtCscRlhGkMwX2w_13karva_project7projectNtB4_14ProjectOptions11show_output
FNDA:0,_RNvMs_NtCscRlhGkMwX2w_13karva_project7projectNtB4_14ProjectOptions11test_prefix
FNDA:0,_RNvMs_NtCscRlhGkMwX2w_13karva_project7projectNtB4_14ProjectOptions14with_fail_fast
FNDA:0,_RNvMs_NtCscRlhGkMwX2w_13karva_project7projectNtB4_14ProjectOptions3new
FNDA:0,_RNvMs_NtCscRlhGkMwX2w_13karva_project7projectNtB4_14ProjectOptions9fail_fast
FNDA:0,_RNvMs_NtCscRlhGkMwX2w_13karva_project7projectNtB4_14ProjectOptions9no_ignore
FNDA:0,_RNvMs_NtCscRlhGkMwX2w_13karva_project7projectNtB4_14ProjectOptions9verbosity
FNDA:0,_RNvXs0_NtCscRlhGkMwX2w_13karva_project7projectNtB5_14ProjectOptionsNtNtCs3vi8RLxhvdw_4core7default7Default7default
FNF:19
FNH:16
DA:15,0
DA:16,0
DA:17,0
DA:19,302
DA:20,302
DA:21,302
DA:34,1
DA:35,1
DA:36,1
DA:37,1
DA:38,1
DA:39,1
DA:40,1
DA:41,1
DA:42,1
DA:43,1
DA:44,1
DA:45,1
DA:46,1
DA:47,1
DA:48,1
DA:50,297
DA:51,297
DA:52,297
DA:54,0
DA:55,0
DA:56,0
DA:58,157
DA:59,157
DA:60,157
DA:62,608
DA:63,608
DA:64,608
DA:66,610
DA:67,610
DA:68,610
DA:71,1
DA:72,1
DA:73,1
DA:74,1
DA:78,209
DA:79,209
DA:80,209
DA:81,209
DA:82,209
DA:83,209
DA:84,209
DA:85,209
DA:86,209
DA:98,208
DA:100,208
DA:101,217
DA:102,208
DA:103,208
DA:105,208
DA:108,0
DA:109,0
DA:110,0
DA:111,0
DA:113,302
DA:114,302
DA:115,302
DA:118,2
DA:119,2
DA:120,2
DA:121,2
DA:123,1672
DA:124,1672
DA:125,1672
DA:127,992
DA:128,992
DA:129,992
DA:131,208
DA:132,217
DA:133,208
BRF:0
BRH:0
LF:77
LH:67
end_of_record
SF:/home/matthew/develop/personal/karva/crates/karva_project/src/utils.rs
FN:10,_RNvNtCseKlgFTNzZWo_13karva_project5utils11module_name
FN:3,_RNvNtCseKlgFTNzZWo_13karva_project5utils14is_python_file
FN:15,_RNCNvNtCseKlgFTNzZWo_13karva_project5utils11module_name0B5_
FN:4,_RNCNvNtCseKlgFTNzZWo_13karva_project5utils14is_python_file0B5_
FN:15,_RNCNvNtCscRlhGkMwX2w_13karva_project5utils11module_name0B5_
FN:4,_RNCNvNtCscRlhGkMwX2w_13karva_project5utils14is_python_file0B5_
FN:29,_RNvNtNtCscRlhGkMwX2w_13karva_project5utils5testss_16test_module_name
FN:38,_RNvNtNtCscRlhGkMwX2w_13karva_project5utils5testss_31test_module_name_with_directory
FN:50,_RNvNtNtCscRlhGkMwX2w_13karva_project5utils5testss_31test_module_name_with_gitignore
FN:10,_RNvNtCscRlhGkMwX2w_13karva_project5utils11module_name
FN:3,_RNvNtCscRlhGkMwX2w_13karva_project5utils14is_python_file
FN:65,_RNvNtNtNtCscRlhGkMwX2w_13karva_project5utils5tests10unix_testss_15test_unix_paths
FNDA:305,_RNvNtCseKlgFTNzZWo_13karva_project5utils11module_name
FNDA:23,_RNvNtCseKlgFTNzZWo_13karva_project5utils14is_python_file
FNDA:790,_RNCNvNtCseKlgFTNzZWo_13karva_project5utils11module_name0B5_
FNDA:23,_RNCNvNtCseKlgFTNzZWo_13karva_project5utils14is_python_file0B5_
FNDA:8,_RNCNvNtCscRlhGkMwX2w_13karva_project5utils11module_name0B5_
FNDA:7,_RNCNvNtCscRlhGkMwX2w_13karva_project5utils14is_python_file0B5_
FNDA:1,_RNvNtNtCscRlhGkMwX2w_13karva_project5utils5testss_16test_module_name
FNDA:1,_RNvNtNtCscRlhGkMwX2w_13karva_project5utils5testss_31test_module_name_with_directory
FNDA:1,_RNvNtNtCscRlhGkMwX2w_13karva_project5utils5testss_31test_module_name_with_gitignore
FNDA:4,_RNvNtCscRlhGkMwX2w_13karva_project5utils11module_name
FNDA:8,_RNvNtCscRlhGkMwX2w_13karva_project5utils14is_python_file
FNDA:1,_RNvNtNtNtCscRlhGkMwX2w_13karva_project5utils5tests10unix_testss_15test_unix_paths
FNF:8
FNH:8
DA:3,31
DA:4,31
DA:5,31
DA:10,309
DA:11,309
DA:13,309
DA:14,309
DA:15,798
DA:16,309
DA:18,309
DA:19,309
DA:29,1
DA:30,1
DA:31,1
DA:32,1
DA:34,1
DA:38,1
DA:39,1
DA:40,1
DA:41,1
DA:42,1
DA:44,1
DA:46,1
DA:50,1
DA:51,1
DA:52,1
DA:53,1
DA:54,1
DA:56,1
DA:58,1
DA:65,1
DA:66,1
DA:67,1
DA:68,1
DA:69,1
DA:71,1
DA:73,1
BRF:0
BRH:0
LF:39
LH:39
end_of_record
SF:/home/matthew/develop/personal/karva/crates/karva_project/src/verbosity.rs
FN:40,_RNvMNtCseKlgFTNzZWo_13karva_project9verbosityNtB2_14VerbosityLevel10is_default
FN:26,_RNvMNtCseKlgFTNzZWo_13karva_project9verbosityNtB2_14VerbosityLevel12level_filter
FN:48,_RNvMNtCseKlgFTNzZWo_13karva_project9verbosityNtB2_14VerbosityLevel16is_extra_verbose
FN:36,_RNvMNtCseKlgFTNzZWo_13karva_project9verbosityNtB2_14VerbosityLevel8is_quiet
FN:44,_RNvMNtCseKlgFTNzZWo_13karva_project9verbosityNtB2_14VerbosityLevel8is_trace
FN:40,_RNvMNtCscRlhGkMwX2w_13karva_project9verbosityNtB2_14VerbosityLevel10is_default
FN:36,_RNvMNtCscRlhGkMwX2w_13karva_project9verbosityNtB2_14VerbosityLevel8is_quiet
FN:58,_RNvNtNtCscRlhGkMwX2w_13karva_project9verbosity5testss_27test_verbosity_level_filter
FN:69,_RNvNtNtCscRlhGkMwX2w_13karva_project9verbosity5testss_29test_verbosity_level_is_trace
FN:74,_RNvNtNtCscRlhGkMwX2w_13karva_project9verbosity5testss_37test_verbosity_level_is_extra_verbose
FN:26,_RNvMNtCscRlhGkMwX2w_13karva_project9verbosityNtB2_14VerbosityLevel12level_filter
FN:48,_RNvMNtCscRlhGkMwX2w_13karva_project9verbosityNtB2_14VerbosityLevel16is_extra_verbose
FN:44,_RNvMNtCscRlhGkMwX2w_13karva_project9verbosityNtB2_14VerbosityLevel8is_trace
FNDA:0,_RNvMNtCseKlgFTNzZWo_13karva_project9verbosityNtB2_14VerbosityLevel10is_default
FNDA:0,_RNvMNtCseKlgFTNzZWo_13karva_project9verbosityNtB2_14VerbosityLevel12level_filter
FNDA:0,_RNvMNtCseKlgFTNzZWo_13karva_project9verbosityNtB2_14VerbosityLevel16is_extra_verbose
FNDA:0,_RNvMNtCseKlgFTNzZWo_13karva_project9verbosityNtB2_14VerbosityLevel8is_quiet
FNDA:0,_RNvMNtCseKlgFTNzZWo_13karva_project9verbosityNtB2_14VerbosityLevel8is_trace
FNDA:0,_RNvMNtCscRlhGkMwX2w_13karva_project9verbosityNtB2_14VerbosityLevel10is_default
FNDA:0,_RNvMNtCscRlhGkMwX2w_13karva_project9verbosityNtB2_14VerbosityLevel8is_quiet
FNDA:1,_RNvNtNtCscRlhGkMwX2w_13karva_project9verbosity5testss_27test_verbosity_level_filter
FNDA:1,_RNvNtNtCscRlhGkMwX2w_13karva_project9verbosity5testss_29test_verbosity_level_is_trace
FNDA:1,_RNvNtNtCscRlhGkMwX2w_13karva_project9verbosity5testss_37test_verbosity_level_is_extra_verbose
FNDA:4,_RNvMNtCscRlhGkMwX2w_13karva_project9verbosityNtB2_14VerbosityLevel12level_filter
FNDA:1,_RNvMNtCscRlhGkMwX2w_13karva_project9verbosityNtB2_14VerbosityLevel16is_extra_verbose
FNDA:1,_RNvMNtCscRlhGkMwX2w_13karva_project9verbosityNtB2_14VerbosityLevel8is_trace
FNF:8
FNH:6
DA:26,4
DA:27,4
DA:28,0
DA:29,1
DA:30,1
DA:31,1
DA:32,1
DA:34,4
DA:36,0
DA:37,0
DA:38,0
DA:40,0
DA:41,0
DA:42,0
DA:44,1
DA:45,1
DA:46,1
DA:48,1
DA:49,1
DA:50,1
DA:58,1
DA:59,1
DA:60,1
DA:61,1
DA:62,1
DA:65,1
DA:66,1
DA:69,1
DA:70,1
DA:71,1
DA:74,1
DA:75,1
DA:76,1
BRF:0
BRH:0
LF:33
LH:26
end_of_record
SF:/home/matthew/develop/personal/karva/crates/karva_test/src/context/test_context.rs
FN:136,_RINvMNtNtCs3Pz4MGtpEaO_10karva_test7context12test_contextNtB3_11TestContext10with_filesATReB1p_Ej1_ECseTUHx2WfywD_17integration_tests
FN:136,_RINvMNtNtCs3Pz4MGtpEaO_10karva_test7context12test_contextNtB3_11TestContext10with_filesATReB1p_Ej2_ECseTUHx2WfywD_17integration_tests
FN:136,_RINvMNtNtCs3Pz4MGtpEaO_10karva_test7context12test_contextNtB3_11TestContext10with_filesATReB1p_Ej3_ECseTUHx2WfywD_17integration_tests
FN:154,_RINvMNtNtCs3Pz4MGtpEaO_10karva_test7context12test_contextNtB3_11TestContext10write_fileReECseTUHx2WfywD_17integration_tests
FN:148,_RINvMNtNtCs3Pz4MGtpEaO_10karva_test7context12test_contextNtB3_11TestContext11write_filesATReB1q_Ej1_ECseTUHx2WfywD_17integration_tests
FN:148,_RINvMNtNtCs3Pz4MGtpEaO_10karva_test7context12test_contextNtB3_11TestContext11write_filesATReB1q_Ej2_ECseTUHx2WfywD_17integration_tests
FN:148,_RINvMNtNtCs3Pz4MGtpEaO_10karva_test7context12test_contextNtB3_11TestContext11write_filesATReB1q_Ej3_ECseTUHx2WfywD_17integration_tests
FN:142,_RINvMNtNtCs3Pz4MGtpEaO_10karva_test7context12test_contextNtB3_11TestContext9with_fileReECseTUHx2WfywD_17integration_tests
FN:180,_RNCINvMNtNtCs3Pz4MGtpEaO_10karva_test7context12test_contextNtB5_11TestContext10write_fileReE0CseTUHx2WfywD_17integration_tests
FN:188,_RNCINvMNtNtCs3Pz4MGtpEaO_10karva_test7context12test_contextNtB5_11TestContext10write_fileReEs0_0CseTUHx2WfywD_17integration_tests
FN:184,_RNCINvMNtNtCs3Pz4MGtpEaO_10karva_test7context12test_contextNtB5_11TestContext10write_fileReEs_0CseTUHx2WfywD_17integration_tests
FN:192,_RNvMNtNtCs3Pz4MGtpEaO_10karva_test7context12test_contextNtB2_11TestContext11mapped_path
FN:105,_RNvMNtNtCs3Pz4MGtpEaO_10karva_test7context12test_contextNtB2_11TestContext17create_random_dir
FN:132,_RNvMNtNtCs3Pz4MGtpEaO_10karva_test7context12test_contextNtB2_11TestContext3cwd
FN:18,_RNvMNtNtCs3Pz4MGtpEaO_10karva_test7context12test_contextNtB2_11TestContext3new
FN:198,_RNvXs_NtNtCs3Pz4MGtpEaO_10karva_test7context12test_contextNtB4_11TestContextNtNtCs3vi8RLxhvdw_4core7default7Default7default
FN:122,_RINvMNtNtCs3Pz4MGtpEaO_10karva_test7context12test_contextNtB3_11TestContext10create_dirNtNtCsa9ZOT0ASFzx_5alloc6string6StringEB7_
FN:33,_RNCNvMNtNtCs3Pz4MGtpEaO_10karva_test7context12test_contextNtB4_11TestContext3new0B8_
FN:66,_RNCNvMNtNtCs3Pz4MGtpEaO_10karva_test7context12test_contextNtB4_11TestContext3news_0B8_
FN:136,_RINvMNtNtCs3Pz4MGtpEaO_10karva_test7context12test_contextNtB3_11TestContext10with_filesATReB1p_Ej1_ECs1eKvc9ZrgUW_10karva_core
FN:136,_RINvMNtNtCs3Pz4MGtpEaO_10karva_test7context12test_contextNtB3_11TestContext10with_filesATReB1p_Ej2_ECs1eKvc9ZrgUW_10karva_core
FN:136,_RINvMNtNtCs3Pz4MGtpEaO_10karva_test7context12test_contextNtB3_11TestContext10with_filesATReB1p_Ej3_ECs1eKvc9ZrgUW_10karva_core
FN:136,_RINvMNtNtCs3Pz4MGtpEaO_10karva_test7context12test_contextNtB3_11TestContext10with_filesATReB1p_Ej4_ECs1eKvc9ZrgUW_10karva_core
FN:136,_RINvMNtNtCs3Pz4MGtpEaO_10karva_test7context12test_contextNtB3_11TestContext10with_filesATReB1p_Ej5_ECs1eKvc9ZrgUW_10karva_core
FN:136,_RINvMNtNtCs3Pz4MGtpEaO_10karva_test7context12test_contextNtB3_11TestContext10with_filesATReB1p_Ej6_ECs1eKvc9ZrgUW_10karva_core
FN:154,_RINvMNtNtCs3Pz4MGtpEaO_10karva_test7context12test_contextNtB3_11TestContext10write_fileReECs1eKvc9ZrgUW_10karva_core
FN:109,_RINvMNtNtCs3Pz4MGtpEaO_10karva_test7context12test_contextNtB3_11TestContext11create_fileReECs1eKvc9ZrgUW_10karva_core
FN:148,_RINvMNtNtCs3Pz4MGtpEaO_10karva_test7context12test_contextNtB3_11TestContext11write_filesATReB1q_Ej1_ECs1eKvc9ZrgUW_10karva_core
FN:148,_RINvMNtNtCs3Pz4MGtpEaO_10karva_test7context12test_contextNtB3_11TestContext11write_filesATReB1q_Ej2_ECs1eKvc9ZrgUW_10karva_core
FN:148,_RINvMNtNtCs3Pz4MGtpEaO_10karva_test7context12test_contextNtB3_11TestContext11write_filesATReB1q_Ej3_ECs1eKvc9ZrgUW_10karva_core
FN:148,_RINvMNtNtCs3Pz4MGtpEaO_10karva_test7context12test_contextNtB3_11TestContext11write_filesATReB1q_Ej4_ECs1eKvc9ZrgUW_10karva_core
FN:148,_RINvMNtNtCs3Pz4MGtpEaO_10karva_test7context12test_contextNtB3_11TestContext11write_filesATReB1q_Ej5_ECs1eKvc9ZrgUW_10karva_core
FN:148,_RINvMNtNtCs3Pz4MGtpEaO_10karva_test7context12test_contextNtB3_11TestContext11write_filesATReB1q_Ej6_ECs1eKvc9ZrgUW_10karva_core
FN:142,_RINvMNtNtCs3Pz4MGtpEaO_10karva_test7context12test_contextNtB3_11TestContext9with_fileReECs1eKvc9ZrgUW_10karva_core
FN:180,_RNCINvMNtNtCs3Pz4MGtpEaO_10karva_test7context12test_contextNtB5_11TestContext10write_fileReE0Cs1eKvc9ZrgUW_10karva_core
FN:188,_RNCINvMNtNtCs3Pz4MGtpEaO_10karva_test7context12test_contextNtB5_11TestContext10write_fileReEs0_0Cs1eKvc9ZrgUW_10karva_core
FN:184,_RNCINvMNtNtCs3Pz4MGtpEaO_10karva_test7context12test_contextNtB5_11TestContext10write_fileReEs_0Cs1eKvc9ZrgUW_10karva_core
FN:122,_RINvMNtNtCs3Pz4MGtpEaO_10karva_test7context12test_contextNtB3_11TestContext10create_dirReECscRlhGkMwX2w_13karva_project
FN:109,_RINvMNtNtCs3Pz4MGtpEaO_10karva_test7context12test_contextNtB3_11TestContext11create_fileReECscRlhGkMwX2w_13karva_project
FN:128,_RINvMNtNtCs3Pz4MGtpEaO_10karva_test7context12test_contextNtB3_11TestContext9temp_pathReECscRlhGkMwX2w_13karva_project
FNDA:6,_RINvMNtNtCs3Pz4MGtpEaO_10karva_test7context12test_contextNtB3_11TestContext10with_filesATReB1p_Ej1_ECseTUHx2WfywD_17integration_tests
FNDA:13,_RINvMNtNtCs3Pz4MGtpEaO_10karva_test7context12test_contextNtB3_11TestContext10with_filesATReB1p_Ej2_ECseTUHx2WfywD_17integration_tests
FNDA:5,_RINvMNtNtCs3Pz4MGtpEaO_10karva_test7context12test_contextNtB3_11TestContext10with_filesATReB1p_Ej3_ECseTUHx2WfywD_17integration_tests
FNDA:178,_RINvMNtNtCs3Pz4MGtpEaO_10karva_test7context12test_contextNtB3_11TestContext10write_fileReECseTUHx2WfywD_17integration_tests
FNDA:6,_RINvMNtNtCs3Pz4MGtpEaO_10karva_test7context12test_contextNtB3_11TestContext11write_filesATReB1q_Ej1_ECseTUHx2WfywD_17integration_tests
FNDA:13,_RINvMNtNtCs3Pz4MGtpEaO_10karva_test7context12test_contextNtB3_11TestContext11write_filesATReB1q_Ej2_ECseTUHx2WfywD_17integration_tests
FNDA:5,_RINvMNtNtCs3Pz4MGtpEaO_10karva_test7context12test_contextNtB3_11TestContext11write_filesATReB1q_Ej3_ECseTUHx2WfywD_17integration_tests
FNDA:131,_RINvMNtNtCs3Pz4MGtpEaO_10karva_test7context12test_contextNtB3_11TestContext9with_fileReECseTUHx2WfywD_17integration_tests
FNDA:0,_RNCINvMNtNtCs3Pz4MGtpEaO_10karva_test7context12test_contextNtB5_11TestContext10write_fileReE0CseTUHx2WfywD_17integration_tests
FNDA:0,_RNCINvMNtNtCs3Pz4MGtpEaO_10karva_test7context12test_contextNtB5_11TestContext10write_fileReEs0_0CseTUHx2WfywD_17integration_tests
FNDA:0,_RNCINvMNtNtCs3Pz4MGtpEaO_10karva_test7context12test_contextNtB5_11TestContext10write_fileReEs_0CseTUHx2WfywD_17integration_tests
FNDA:37,_RNvMNtNtCs3Pz4MGtpEaO_10karva_test7context12test_contextNtB2_11TestContext11mapped_path
FNDA:0,_RNvMNtNtCs3Pz4MGtpEaO_10karva_test7context12test_contextNtB2_11TestContext17create_random_dir
FNDA:393,_RNvMNtNtCs3Pz4MGtpEaO_10karva_test7context12test_contextNtB2_11TestContext3cwd
FNDA:217,_RNvMNtNtCs3Pz4MGtpEaO_10karva_test7context12test_contextNtB2_11TestContext3new
FNDA:199,_RNvXs_NtNtCs3Pz4MGtpEaO_10karva_test7context12test_contextNtB4_11TestContextNtNtCs3vi8RLxhvdw_4core7default7Default7default
FNDA:0,_RINvMNtNtCs3Pz4MGtpEaO_10karva_test7context12test_contextNtB3_11TestContext10create_dirNtNtCsa9ZOT0ASFzx_5alloc6string6StringEB7_
FNDA:217,_RNCNvMNtNtCs3Pz4MGtpEaO_10karva_test7context12test_contextNtB4_11TestContext3new0B8_
FNDA:0,_RNCNvMNtNtCs3Pz4MGtpEaO_10karva_test7context12test_contextNtB4_11TestContext3news_0B8_
FNDA:14,_RINvMNtNtCs3Pz4MGtpEaO_10karva_test7context12test_contextNtB3_11TestContext10with_filesATReB1p_Ej1_ECs1eKvc9ZrgUW_10karva_core
FNDA:15,_RINvMNtNtCs3Pz4MGtpEaO_10karva_test7context12test_contextNtB3_11TestContext10with_filesATReB1p_Ej2_ECs1eKvc9ZrgUW_10karva_core
FNDA:6,_RINvMNtNtCs3Pz4MGtpEaO_10karva_test7context12test_contextNtB3_11TestContext10with_filesATReB1p_Ej3_ECs1eKvc9ZrgUW_10karva_core
FNDA:4,_RINvMNtNtCs3Pz4MGtpEaO_10karva_test7context12test_contextNtB3_11TestContext10with_filesATReB1p_Ej4_ECs1eKvc9ZrgUW_10karva_core
FNDA:2,_RINvMNtNtCs3Pz4MGtpEaO_10karva_test7context12test_contextNtB3_11TestContext10with_filesATReB1p_Ej5_ECs1eKvc9ZrgUW_10karva_core
FNDA:1,_RINvMNtNtCs3Pz4MGtpEaO_10karva_test7context12test_contextNtB3_11TestContext10with_filesATReB1p_Ej6_ECs1eKvc9ZrgUW_10karva_core
FNDA:96,_RINvMNtNtCs3Pz4MGtpEaO_10karva_test7context12test_contextNtB3_11TestContext10write_fileReECs1eKvc9ZrgUW_10karva_core
FNDA:1,_RINvMNtNtCs3Pz4MGtpEaO_10karva_test7context12test_contextNtB3_11TestContext11create_fileReECs1eKvc9ZrgUW_10karva_core
FNDA:14,_RINvMNtNtCs3Pz4MGtpEaO_10karva_test7context12test_contextNtB3_11TestContext11write_filesATReB1q_Ej1_ECs1eKvc9ZrgUW_10karva_core
FNDA:15,_RINvMNtNtCs3Pz4MGtpEaO_10karva_test7context12test_contextNtB3_11TestContext11write_filesATReB1q_Ej2_ECs1eKvc9ZrgUW_10karva_core
FNDA:6,_RINvMNtNtCs3Pz4MGtpEaO_10karva_test7context12test_contextNtB3_11TestContext11write_filesATReB1q_Ej3_ECs1eKvc9ZrgUW_10karva_core
FNDA:4,_RINvMNtNtCs3Pz4MGtpEaO_10karva_test7context12test_contextNtB3_11TestContext11write_filesATReB1q_Ej4_ECs1eKvc9ZrgUW_10karva_core
FNDA:2,_RINvMNtNtCs3Pz4MGtpEaO_10karva_test7context12test_contextNtB3_11TestContext11write_filesATReB1q_Ej5_ECs1eKvc9ZrgUW_10karva_core
FNDA:1,_RINvMNtNtCs3Pz4MGtpEaO_10karva_test7context12test_contextNtB3_11TestContext11write_filesATReB1q_Ej6_ECs1eKvc9ZrgUW_10karva_core
FNDA:2,_RINvMNtNtCs3Pz4MGtpEaO_10karva_test7context12test_contextNtB3_11TestContext9with_fileReECs1eKvc9ZrgUW_10karva_core
FNDA:0,_RNCINvMNtNtCs3Pz4MGtpEaO_10karva_test7context12test_contextNtB5_11TestContext10write_fileReE0Cs1eKvc9ZrgUW_10karva_core
FNDA:0,_RNCINvMNtNtCs3Pz4MGtpEaO_10karva_test7context12test_contextNtB5_11TestContext10write_fileReEs0_0Cs1eKvc9ZrgUW_10karva_core
FNDA:0,_RNCINvMNtNtCs3Pz4MGtpEaO_10karva_test7context12test_contextNtB5_11TestContext10write_fileReEs_0Cs1eKvc9ZrgUW_10karva_core
FNDA:2,_RINvMNtNtCs3Pz4MGtpEaO_10karva_test7context12test_contextNtB3_11TestContext10create_dirReECscRlhGkMwX2w_13karva_project
FNDA:12,_RINvMNtNtCs3Pz4MGtpEaO_10karva_test7context12test_contextNtB3_11TestContext11create_fileReECscRlhGkMwX2w_13karva_project
FNDA:7,_RINvMNtNtCs3Pz4MGtpEaO_10karva_test7context12test_contextNtB3_11TestContext9temp_pathReECscRlhGkMwX2w_13karva_project
FNF:17
FNH:12
DA:18,217
DA:19,217
DA:21,217
DA:22,217
DA:23,217
DA:24,217
DA:25,217
DA:26,217
DA:27,217
DA:28,217
DA:29,217
DA:31,217
DA:33,217
DA:35,217
DA:37,217
DA:39,217
DA:41,217
DA:42,217
DA:43,0
DA:44,217
DA:45,217
DA:46,217
DA:48,217
DA:49,217
DA:50,217
DA:51,217
DA:52,217
DA:53,217
DA:54,217
DA:55,217
DA:56,217
DA:57,217
DA:58,217
DA:59,217
DA:61,868
DA:62,651
DA:63,651
DA:64,651
DA:65,651
DA:66,651
DA:67,651
DA:69,651
DA:71,651
DA:73,651
DA:74,651
DA:77,217
DA:79,217
DA:80,434
DA:81,434
DA:82,434
DA:83,434
DA:84,434
DA:85,434
DA:86,434
DA:87,434
DA:88,434
DA:90,217
DA:91,217
DA:92,217
DA:93,217
DA:95,217
DA:97,217
DA:98,217
DA:99,217
DA:100,217
DA:101,217
DA:102,217
DA:103,217
DA:105,0
DA:106,0
DA:107,0
DA:109,13
DA:110,13
DA:111,13
DA:113,13
DA:114,13
DA:115,13
DA:116,13
DA:118,13
DA:119,13
DA:122,2
DA:123,2
DA:124,2
DA:125,2
DA:126,2
DA:128,7
DA:129,7
DA:130,7
DA:132,393
DA:133,393
DA:134,393
DA:136,66
DA:137,66
DA:138,66
DA:139,66
DA:140,66
DA:142,133
DA:143,133
DA:144,133
DA:145,133
DA:146,133
DA:148,66
DA:149,207
DA:150,141
DA:151,141
DA:152,66
DA:154,274
DA:156,274
DA:157,274
DA:160,274
DA:161,274
DA:163,274
DA:164,274
DA:165,274
DA:166,274
DA:168,0
DA:170,0
DA:171,0
DA:173,0
DA:176,274
DA:177,274
DA:178,0
DA:179,0
DA:180,274
DA:182,274
DA:183,274
DA:184,274
DA:185,274
DA:186,0
DA:187,274
DA:188,274
DA:189,274
DA:190,274
DA:192,37
DA:193,37
DA:194,37
DA:198,199
DA:199,199
DA:200,199
BRF:0
BRH:0
LF:144
LH:129
end_of_record
SF:/home/matthew/develop/personal/karva/crates/karva_test/src/real_world_projects.rs
FN:310,_RNCNCNvNtCs3Pz4MGtpEaO_10karva_test19real_world_projects22cargo_target_directory00B7_
FN:124,_RNCNvNtCs3Pz4MGtpEaO_10karva_test19real_world_projects21get_project_cache_dir0B5_
FN:302,_RNCNvNtCs3Pz4MGtpEaO_10karva_test19real_world_projects22cargo_target_directory0B5_
FN:39,_RNvMNtCs3Pz4MGtpEaO_10karva_test19real_world_projectsNtB2_16RealWorldProject5setup
FN:111,_RNvMs0_NtCs3Pz4MGtpEaO_10karva_test19real_world_projectsNtB5_16InstalledProject10test_paths
FN:115,_RNvMs0_NtCs3Pz4MGtpEaO_10karva_test19real_world_projectsNtB5_16InstalledProject4path
FN:107,_RNvMs0_NtCs3Pz4MGtpEaO_10karva_test19real_world_projectsNtB5_16InstalledProject6config
FN:94,_RNvMs_NtCs3Pz4MGtpEaO_10karva_test19real_world_projectsNtB4_8Checkout12project_root
FN:90,_RNvMs_NtCs3Pz4MGtpEaO_10karva_test19real_world_projectsNtB4_8Checkout7project
FN:355,_RNvNtCs3Pz4MGtpEaO_10karva_test19real_world_projects12all_projects
FN:344,_RNvNtCs3Pz4MGtpEaO_10karva_test19real_world_projects13typer_project
FN:322,_RNvNtCs3Pz4MGtpEaO_10karva_test19real_world_projects14affect_project
FN:170,_RNvNtCs3Pz4MGtpEaO_10karva_test19real_world_projects16clone_repository
FN:289,_RNvNtCs3Pz4MGtpEaO_10karva_test19real_world_projects16global_venv_path
FN:333,_RNvNtCs3Pz4MGtpEaO_10karva_test19real_world_projects16sqlmodel_project
FN:137,_RNvNtCs3Pz4MGtpEaO_10karva_test19real_world_projects17update_repository
FN:226,_RNvNtCs3Pz4MGtpEaO_10karva_test19real_world_projects20install_dependencies
FN:121,_RNvNtCs3Pz4MGtpEaO_10karva_test19real_world_projects21get_project_cache_dir
FN:300,_RNvNtCs3Pz4MGtpEaO_10karva_test19real_world_projects22cargo_target_directory
FNDA:0,_RNCNCNvNtCs3Pz4MGtpEaO_10karva_test19real_world_projects22cargo_target_directory00B7_
FNDA:0,_RNCNvNtCs3Pz4MGtpEaO_10karva_test19real_world_projects21get_project_cache_dir0B5_
FNDA:0,_RNCNvNtCs3Pz4MGtpEaO_10karva_test19real_world_projects22cargo_target_directory0B5_
FNDA:0,_RNvMNtCs3Pz4MGtpEaO_10karva_test19real_world_projectsNtB2_16RealWorldProject5setup
FNDA:0,_RNvMs0_NtCs3Pz4MGtpEaO_10karva_test19real_world_projectsNtB5_16InstalledProject10test_paths
FNDA:0,_RNvMs0_NtCs3Pz4MGtpEaO_10karva_test19real_world_projectsNtB5_16InstalledProject4path
FNDA:0,_RNvMs0_NtCs3Pz4MGtpEaO_10karva_test19real_world_projectsNtB5_16InstalledProject6config
FNDA:0,_RNvMs_NtCs3Pz4MGtpEaO_10karva_test19real_world_projectsNtB4_8Checkout12project_root
FNDA:0,_RNvMs_NtCs3Pz4MGtpEaO_10karva_test19real_world_projectsNtB4_8Checkout7project
FNDA:0,_RNvNtCs3Pz4MGtpEaO_10karva_test19real_world_projects12all_projects
FNDA:0,_RNvNtCs3Pz4MGtpEaO_10karva_test19real_world_projects13typer_project
FNDA:0,_RNvNtCs3Pz4MGtpEaO_10karva_test19real_world_projects14affect_project
FNDA:0,_RNvNtCs3Pz4MGtpEaO_10karva_test19real_world_projects16clone_repository
FNDA:0,_RNvNtCs3Pz4MGtpEaO_10karva_test19real_world_projects16global_venv_path
FNDA:0,_RNvNtCs3Pz4MGtpEaO_10karva_test19real_world_projects16sqlmodel_project
FNDA:0,_RNvNtCs3Pz4MGtpEaO_10karva_test19real_world_projects17update_repository
FNDA:0,_RNvNtCs3Pz4MGtpEaO_10karva_test19real_world_projects20install_dependencies
FNDA:0,_RNvNtCs3Pz4MGtpEaO_10karva_test19real_world_projects21get_project_cache_dir
FNDA:0,_RNvNtCs3Pz4MGtpEaO_10karva_test19real_world_projects22cargo_target_directory
FNF:19
FNH:0
DA:39,0
DA:40,0
DA:43,0
DA:46,0
DA:47,0
DA:48,0
DA:49,0
DA:50,0
DA:51,0
DA:52,0
DA:55,0
DA:56,0
DA:57,0
DA:58,0
DA:59,0
DA:60,0
DA:64,0
DA:65,0
DA:66,0
DA:67,0
DA:69,0
DA:70,0
DA:72,0
DA:75,0
DA:77,0
DA:78,0
DA:79,0
DA:80,0
DA:81,0
DA:90,0
DA:91,0
DA:92,0
DA:94,0
DA:95,0
DA:96,0
DA:107,0
DA:108,0
DA:109,0
DA:111,0
DA:112,0
DA:113,0
DA:115,0
DA:116,0
DA:117,0
DA:121,0
DA:122,0
DA:123,0
DA:124,0
DA:125,0
DA:126,0
DA:127,0
DA:129,0
DA:130,0
DA:131,0
DA:133,0
DA:134,0
DA:137,0
DA:138,0
DA:139,0
DA:140,0
DA:141,0
DA:142,0
DA:144,0
DA:145,0
DA:146,0
DA:148,0
DA:150,0
DA:153,0
DA:154,0
DA:155,0
DA:156,0
DA:157,0
DA:159,0
DA:160,0
DA:161,0
DA:163,0
DA:166,0
DA:167,0
DA:170,0
DA:172,0
DA:173,0
DA:174,0
DA:177,0
DA:178,0
DA:179,0
DA:180,0
DA:181,0
DA:182,0
DA:183,0
DA:184,0
DA:185,0
DA:186,0
DA:188,0
DA:189,0
DA:190,0
DA:191,0
DA:195,0
DA:196,0
DA:197,0
DA:198,0
DA:199,0
DA:201,0
DA:202,0
DA:203,0
DA:205,0
DA:209,0
DA:210,0
DA:211,0
DA:212,0
DA:213,0
DA:215,0
DA:216,0
DA:217,0
DA:219,0
DA:222,0
DA:223,0
DA:226,0
DA:228,0
DA:229,0
DA:230,0
DA:231,0
DA:233,0
DA:234,0
DA:235,0
DA:237,0
DA:239,0
DA:240,0
DA:242,0
DA:243,0
DA:244,0
DA:245,0
DA:246,0
DA:248,0
DA:249,0
DA:250,0
DA:251,0
DA:254,0
DA:255,0
DA:256,0
DA:257,0
DA:259,0
DA:260,0
DA:262,0
DA:263,0
DA:264,0
DA:265,0
DA:266,0
DA:268,0
DA:269,0
DA:270,0
DA:271,0
DA:274,0
DA:275,0
DA:276,0
DA:277,0
DA:278,0
DA:280,0
DA:281,0
DA:282,0
DA:283,0
DA:286,0
DA:287,0
DA:289,0
DA:290,0
DA:291,0
DA:292,0
DA:293,0
DA:294,0
DA:295,0
DA:296,0
DA:300,0
DA:301,0
DA:302,0
DA:308,0
DA:309,0
DA:310,0
DA:311,0
DA:312,0
DA:313,0
DA:314,0
DA:315,0
DA:316,0
DA:317,0
DA:318,0
DA:319,0
DA:320,0
DA:322,0
DA:323,0
DA:324,0
DA:325,0
DA:326,0
DA:327,0
DA:328,0
DA:329,0
DA:330,0
DA:331,0
DA:333,0
DA:334,0
DA:335,0
DA:336,0
DA:337,0
DA:338,0
DA:339,0
DA:340,0
DA:341,0
DA:342,0
DA:344,0
DA:345,0
DA:346,0
DA:347,0
DA:348,0
DA:349,0
DA:350,0
DA:351,0
DA:352,0
DA:353,0
DA:355,0
DA:356,0
DA:357,0
BRF:0
BRH:0
LF:222
LH:0
end_of_record
SF:/home/matthew/develop/personal/karva/crates/karva_test/src/utils.rs
FN:9,_RNCNvNtCs3Pz4MGtpEaO_10karva_test5utils16find_karva_wheel0B5_
FN:16,_RNCNvNtCs3Pz4MGtpEaO_10karva_test5utils16find_karva_wheels0_0B5_
FN:25,_RNCNvNtCs3Pz4MGtpEaO_10karva_test5utils16find_karva_wheels1_0B5_
FN:10,_RNCNvNtCs3Pz4MGtpEaO_10karva_test5utils16find_karva_wheels_0B5_
FN:37,_RNvNtCs3Pz4MGtpEaO_10karva_test5utils14tempdir_filter
FN:6,_RNvNtCs3Pz4MGtpEaO_10karva_test5utils16find_karva_wheel
FNDA:217,_RNCNvNtCs3Pz4MGtpEaO_10karva_test5utils16find_karva_wheel0B5_
FNDA:0,_RNCNvNtCs3Pz4MGtpEaO_10karva_test5utils16find_karva_wheels0_0B5_
FNDA:217,_RNCNvNtCs3Pz4MGtpEaO_10karva_test5utils16find_karva_wheels1_0B5_
FNDA:0,_RNCNvNtCs3Pz4MGtpEaO_10karva_test5utils16find_karva_wheels_0B5_
FNDA:217,_RNvNtCs3Pz4MGtpEaO_10karva_test5utils14tempdir_filter
FNDA:217,_RNvNtCs3Pz4MGtpEaO_10karva_test5utils16find_karva_wheel
FNF:6
FNH:4
DA:6,217
DA:7,217
DA:8,217
DA:9,217
DA:10,217
DA:11,217
DA:13,217
DA:15,217
DA:16,217
DA:18,217
DA:19,217
DA:20,217
DA:21,217
DA:22,217
DA:23,217
DA:24,217
DA:25,217
DA:27,217
DA:28,217
DA:29,217
DA:30,0
DA:31,0
DA:34,0
DA:35,217
DA:37,217
DA:38,217
DA:39,217
BRF:0
BRH:0
LF:31
LH:26
end_of_record